ARM GAS  C:\Users\chlok\AppData\Local\Temp\cc6abUwe.s 			page 1


   1              		.cpu cortex-m4
   2              		.eabi_attribute 27, 1
   3              		.eabi_attribute 28, 1
   4              		.eabi_attribute 20, 1
   5              		.eabi_attribute 21, 1
   6              		.eabi_attribute 23, 3
   7              		.eabi_attribute 24, 1
   8              		.eabi_attribute 25, 1
   9              		.eabi_attribute 26, 1
  10              		.eabi_attribute 30, 2
  11              		.eabi_attribute 34, 1
  12              		.eabi_attribute 18, 4
  13              		.file	"process_image.c"
  14              		.text
  15              	.Ltext0:
  16              		.cfi_sections	.debug_frame
  17              		.section	.text.chprintf.constprop.0,"ax",%progbits
  18              		.align	1
  19              		.p2align 4,,15
  20              		.syntax unified
  21              		.thumb
  22              		.thumb_func
  23              		.fpu fpv4-sp-d16
  24              		.type	chprintf.constprop.0, %function
  25              	chprintf.constprop.0:
  26              	.LFB264:
  27              		.file 1 "../../lib/e-puck2_main-processor/ChibiOS//os/hal/lib/streams/chprintf.h"
  28              		.loc 1 69 0
  29              		.cfi_startproc
  30              		@ args = 4, pretend = 12, frame = 8
  31              		@ frame_needed = 0, uses_anonymous_args = 1
  32              	.LVL0:
  33 0000 0EB4     		push	{r1, r2, r3}
  34              		.cfi_def_cfa_offset 12
  35              		.cfi_offset 1, -12
  36              		.cfi_offset 2, -8
  37              		.cfi_offset 3, -4
  38 0002 10B5     		push	{r4, lr}
  39              		.cfi_def_cfa_offset 20
  40              		.cfi_offset 4, -20
  41              		.cfi_offset 14, -16
  42 0004 0A4C     		ldr	r4, .L6
  43              		.loc 1 74 0
  44 0006 0B49     		ldr	r1, .L6+4
  45              		.loc 1 69 0
  46 0008 2368     		ldr	r3, [r4]
  47              		.loc 1 74 0
  48 000a 0B48     		ldr	r0, .L6+8
  49              	.LVL1:
  50              		.loc 1 69 0
  51 000c 83B0     		sub	sp, sp, #12
  52              		.cfi_def_cfa_offset 32
  53              		.loc 1 69 0
  54 000e 0193     		str	r3, [sp, #4]
  55              	.LVL2:
  56              		.loc 1 73 0
  57 0010 06AB     		add	r3, sp, #24
ARM GAS  C:\Users\chlok\AppData\Local\Temp\cc6abUwe.s 			page 2


  58              		.loc 1 74 0
  59 0012 1A46     		mov	r2, r3
  60              		.loc 1 73 0
  61 0014 0093     		str	r3, [sp]
  62              		.loc 1 74 0
  63 0016 FFF7FEFF 		bl	chvprintf
  64              	.LVL3:
  65              		.loc 1 78 0
  66 001a 019A     		ldr	r2, [sp, #4]
  67 001c 2368     		ldr	r3, [r4]
  68 001e 9A42     		cmp	r2, r3
  69 0020 04D1     		bne	.L5
  70 0022 03B0     		add	sp, sp, #12
  71              		.cfi_remember_state
  72              		.cfi_def_cfa_offset 20
  73              		@ sp needed
  74 0024 BDE81040 		pop	{r4, lr}
  75              		.cfi_restore 14
  76              		.cfi_restore 4
  77              		.cfi_def_cfa_offset 12
  78 0028 03B0     		add	sp, sp, #12
  79              		.cfi_restore 3
  80              		.cfi_restore 2
  81              		.cfi_restore 1
  82              		.cfi_def_cfa_offset 0
  83 002a 7047     		bx	lr
  84              	.L5:
  85              		.cfi_restore_state
  86 002c FFF7FEFF 		bl	__stack_chk_fail
  87              	.LVL4:
  88              	.L7:
  89              		.align	2
  90              	.L6:
  91 0030 00000000 		.word	__stack_chk_guard
  92 0034 00000000 		.word	.LC0
  93 0038 00000000 		.word	SDU1
  94              		.cfi_endproc
  95              	.LFE264:
  96              		.size	chprintf.constprop.0, .-chprintf.constprop.0
  97              		.section	.text.CaptureImage,"ax",%progbits
  98              		.align	1
  99              		.p2align 4,,15
 100              		.syntax unified
 101              		.thumb
 102              		.thumb_func
 103              		.fpu fpv4-sp-d16
 104              		.type	CaptureImage, %function
 105              	CaptureImage:
 106              	.LFB257:
 107              		.file 2 "process_image.c"
 108              		.loc 2 21 0
 109              		.cfi_startproc
 110              		@ args = 0, pretend = 0, frame = 8
 111              		@ frame_needed = 0, uses_anonymous_args = 0
 112              	.LVL5:
 113 0000 2DE9F041 		push	{r4, r5, r6, r7, r8, lr}
 114              		.cfi_def_cfa_offset 24
ARM GAS  C:\Users\chlok\AppData\Local\Temp\cc6abUwe.s 			page 3


 115              		.cfi_offset 4, -24
 116              		.cfi_offset 5, -20
 117              		.cfi_offset 6, -16
 118              		.cfi_offset 7, -12
 119              		.cfi_offset 8, -8
 120              		.cfi_offset 14, -4
 121              	.LBB83:
 122              	.LBB84:
 123              		.file 3 "../../lib/e-puck2_main-processor/ChibiOS//os/rt/include/chregistry.h"
 124              		.loc 3 135 0
 125 0004 304C     		ldr	r4, .L15
 126              	.LBE84:
 127              	.LBE83:
 128              		.loc 2 21 0
 129 0006 314A     		ldr	r2, .L15+4
 130              	.LBB86:
 131              	.LBB85:
 132              		.loc 3 135 0
 133 0008 A369     		ldr	r3, [r4, #24]
 134 000a 3149     		ldr	r1, .L15+8
 135 000c 9961     		str	r1, [r3, #24]
 136              	.LBE85:
 137              	.LBE86:
 138              		.loc 2 21 0
 139 000e 86B0     		sub	sp, sp, #24
 140              		.cfi_def_cfa_offset 48
 141              		.loc 2 27 0
 142 0010 0223     		movs	r3, #2
 143 0012 2025     		movs	r5, #32
 144              		.loc 2 21 0
 145 0014 1668     		ldr	r6, [r2]
 146              		.loc 2 27 0
 147 0016 0093     		str	r3, [sp]
 148 0018 0A22     		movs	r2, #10
 149 001a 4FF42073 		mov	r3, #640
 150 001e 0021     		movs	r1, #0
 151 0020 CDE90155 		strd	r5, r5, [sp, #4]
 152 0024 3020     		movs	r0, #48
 153              	.LVL6:
 154              		.loc 2 21 0
 155 0026 0596     		str	r6, [sp, #20]
 156              		.loc 2 27 0
 157 0028 FFF7FEFF 		bl	po8030_advanced_config
 158              	.LVL7:
 159              		.loc 2 28 0
 160 002c FFF7FEFF 		bl	dcmi_enable_double_buffering
 161              	.LVL8:
 162              		.loc 2 29 0
 163 0030 0020     		movs	r0, #0
 164 0032 FFF7FEFF 		bl	dcmi_set_capture_mode
 165              	.LVL9:
 166 0036 274F     		ldr	r7, .L15+12
 167              	.LBB87:
 168              	.LBB88:
 169              	.LBB89:
 170              	.LBB90:
 171              	.LBB91:
ARM GAS  C:\Users\chlok\AppData\Local\Temp\cc6abUwe.s 			page 4


 172              		.file 4 "../../lib/e-puck2_main-processor/ChibiOS//os/rt/include/chsys.h"
 173              		.loc 4 367 0
 174 0038 DFF89C80 		ldr	r8, .L15+16
 175              	.LBE91:
 176              	.LBE90:
 177              	.LBE89:
 178              	.LBE88:
 179              	.LBE87:
 180              		.loc 2 30 0
 181 003c FFF7FEFF 		bl	dcmi_prepare
 182              	.LVL10:
 183              	.LBB129:
 184              	.LBB111:
 185              	.LBB109:
 186              	.LBB100:
 187              	.LBB98:
 188              	.LBB92:
 189              	.LBB93:
 190              	.LBB94:
 191              		.file 5 "../../lib/e-puck2_main-processor/ChibiOS//os/ext/CMSIS/include/core_cmFunc.h"
 192              		.loc 5 546 0
 193 0040 0026     		movs	r6, #0
 194 0042 15E0     		b	.L12
 195              	.LVL11:
 196              	.L10:
 197              	.LBE94:
 198              	.LBE93:
 199              	.LBE92:
 200              	.LBE98:
 201              	.LBE100:
 202              	.LBE109:
 203              	.LBE111:
 204              	.LBB112:
 205              	.LBB113:
 206              		.file 6 "../../lib/e-puck2_main-processor/ChibiOS//os/rt/include/chbsem.h"
 207              		.loc 6 286 0
 208 0044 FFF7FEFF 		bl	chSchRescheduleS
 209              	.LVL12:
 210              	.LBB114:
 211              	.LBB115:
 212              		.loc 4 360 0
 213 0048 FFF7FEFF 		bl	_dbg_check_unlock
 214              	.LVL13:
 215              		.loc 4 361 0
 216 004c FFF7FEFF 		bl	_stats_stop_measure_crit_thd
 217              	.LVL14:
 218              		.loc 4 367 0
 219 0050 2368     		ldr	r3, [r4]
 220 0052 A342     		cmp	r3, r4
 221 0054 07D0     		beq	.L11
 222 0056 A269     		ldr	r2, [r4, #24]
 223 0058 9B68     		ldr	r3, [r3, #8]
 224 005a 9268     		ldr	r2, [r2, #8]
 225 005c 9A42     		cmp	r2, r3
 226 005e 02D2     		bcs	.L11
 227 0060 4046     		mov	r0, r8
 228 0062 FFF7FEFF 		bl	chSysHalt
ARM GAS  C:\Users\chlok\AppData\Local\Temp\cc6abUwe.s 			page 5


 229              	.LVL15:
 230              	.L11:
 231              	.LBB116:
 232              	.LBB117:
 233              	.LBB118:
 234              		.loc 5 546 0
 235              		.syntax unified
 236              	@ 546 "../../lib/e-puck2_main-processor/ChibiOS//os/ext/CMSIS/include/core_cmFunc.h" 1
 237 0066 86F31188 		MSR basepri, r6
 238              	@ 0 "" 2
 239              	.LVL16:
 240              		.thumb
 241              		.syntax unified
 242              	.LBE118:
 243              	.LBE117:
 244              	.LBE116:
 245              	.LBE115:
 246              	.LBE114:
 247              	.LBE113:
 248              	.LBE112:
 249              		.loc 2 43 0
 250 006a 6420     		movs	r0, #100
 251 006c FFF7FEFF 		bl	chThdSleep
 252              	.LVL17:
 253              	.L12:
 254              	.LBB127:
 255              	.LBB110:
 256              	.LBB101:
 257              	.LBB102:
 258              	.LBB103:
 259              	.LBB104:
 260              	.LBB105:
 261              		.loc 5 546 0 discriminator 1
 262              		.syntax unified
 263              	@ 546 "../../lib/e-puck2_main-processor/ChibiOS//os/ext/CMSIS/include/core_cmFunc.h" 1
 264 0070 85F31188 		MSR basepri, r5
 265              	@ 0 "" 2
 266              	.LVL18:
 267              		.thumb
 268              		.syntax unified
 269              	.LBE105:
 270              	.LBE104:
 271              	.LBE103:
 272              		.loc 4 349 0 discriminator 1
 273 0074 FFF7FEFF 		bl	_stats_start_measure_crit_thd
 274              	.LVL19:
 275              		.loc 4 350 0 discriminator 1
 276 0078 FFF7FEFF 		bl	_dbg_check_lock
 277              	.LVL20:
 278              	.LBE102:
 279              	.LBE101:
 280              	.LBB106:
 281              	.LBB107:
 282              		.file 7 "../../lib/e-puck2_main-processor/ChibiOS//os/rt/include/chvt.h"
 283              		.loc 7 231 0 discriminator 1
 284 007c A36A     		ldr	r3, [r4, #40]
 285              	.LBE107:
ARM GAS  C:\Users\chlok\AppData\Local\Temp\cc6abUwe.s 			page 6


 286              	.LBE106:
 287              	.LBB108:
 288              	.LBB99:
 289              		.loc 4 360 0 discriminator 1
 290 007e FFF7FEFF 		bl	_dbg_check_unlock
 291              	.LVL21:
 292              		.loc 4 361 0 discriminator 1
 293 0082 FFF7FEFF 		bl	_stats_stop_measure_crit_thd
 294              	.LVL22:
 295              		.loc 4 367 0 discriminator 1
 296 0086 2368     		ldr	r3, [r4]
 297 0088 A342     		cmp	r3, r4
 298 008a 07D0     		beq	.L9
 299              		.loc 4 367 0 is_stmt 0
 300 008c A269     		ldr	r2, [r4, #24]
 301 008e 9B68     		ldr	r3, [r3, #8]
 302 0090 9268     		ldr	r2, [r2, #8]
 303 0092 9A42     		cmp	r2, r3
 304 0094 02D2     		bcs	.L9
 305 0096 4046     		mov	r0, r8
 306 0098 FFF7FEFF 		bl	chSysHalt
 307              	.LVL23:
 308              	.L9:
 309              	.LBB97:
 310              	.LBB96:
 311              	.LBB95:
 312              		.loc 5 546 0 is_stmt 1
 313              		.syntax unified
 314              	@ 546 "../../lib/e-puck2_main-processor/ChibiOS//os/ext/CMSIS/include/core_cmFunc.h" 1
 315 009c 86F31188 		MSR basepri, r6
 316              	@ 0 "" 2
 317              	.LVL24:
 318              		.thumb
 319              		.syntax unified
 320              	.LBE95:
 321              	.LBE96:
 322              	.LBE97:
 323              	.LBE99:
 324              	.LBE108:
 325              	.LBE110:
 326              	.LBE127:
 327              		.loc 2 38 0
 328 00a0 FFF7FEFF 		bl	dcmi_capture_start
 329              	.LVL25:
 330              		.loc 2 40 0
 331 00a4 FFF7FEFF 		bl	wait_image_ready
 332              	.LVL26:
 333              	.LBB128:
 334              	.LBB126:
 335              	.LBB119:
 336              	.LBB120:
 337              	.LBB121:
 338              	.LBB122:
 339              	.LBB123:
 340              		.loc 5 546 0
 341              		.syntax unified
 342              	@ 546 "../../lib/e-puck2_main-processor/ChibiOS//os/ext/CMSIS/include/core_cmFunc.h" 1
ARM GAS  C:\Users\chlok\AppData\Local\Temp\cc6abUwe.s 			page 7


 343 00a8 85F31188 		MSR basepri, r5
 344              	@ 0 "" 2
 345              	.LVL27:
 346              		.thumb
 347              		.syntax unified
 348              	.LBE123:
 349              	.LBE122:
 350              	.LBE121:
 351              		.loc 4 349 0
 352 00ac FFF7FEFF 		bl	_stats_start_measure_crit_thd
 353              	.LVL28:
 354              		.loc 4 350 0
 355 00b0 FFF7FEFF 		bl	_dbg_check_lock
 356              	.LVL29:
 357              	.LBE120:
 358              	.LBE119:
 359              	.LBB124:
 360              	.LBB125:
 361              		.loc 6 268 0
 362 00b4 FFF7FEFF 		bl	chDbgCheckClassI
 363              	.LVL30:
 364              		.loc 6 270 0
 365 00b8 BB68     		ldr	r3, [r7, #8]
 366 00ba 002B     		cmp	r3, #0
 367 00bc C2DC     		bgt	.L10
 368              		.loc 6 271 0
 369 00be 0548     		ldr	r0, .L15+12
 370 00c0 FFF7FEFF 		bl	chSemSignalI
 371              	.LVL31:
 372 00c4 BEE7     		b	.L10
 373              	.L16:
 374 00c6 00BF     		.align	2
 375              	.L15:
 376 00c8 00000000 		.word	ch
 377 00cc 00000000 		.word	__stack_chk_guard
 378 00d0 00000000 		.word	.LANCHOR0
 379 00d4 00000000 		.word	.LANCHOR2
 380 00d8 00000000 		.word	.LANCHOR1
 381              	.LBE125:
 382              	.LBE124:
 383              	.LBE126:
 384              	.LBE128:
 385              	.LBE129:
 386              		.cfi_endproc
 387              	.LFE257:
 388              		.size	CaptureImage, .-CaptureImage
 389              		.section	.text.detection,"ax",%progbits
 390              		.align	1
 391              		.p2align 4,,15
 392              		.global	detection
 393              		.syntax unified
 394              		.thumb
 395              		.thumb_func
 396              		.fpu fpv4-sp-d16
 397              		.type	detection, %function
 398              	detection:
 399              	.LFB258:
ARM GAS  C:\Users\chlok\AppData\Local\Temp\cc6abUwe.s 			page 8


 400              		.loc 2 51 0
 401              		.cfi_startproc
 402              		@ args = 0, pretend = 0, frame = 8
 403              		@ frame_needed = 0, uses_anonymous_args = 0
 404              	.LVL32:
 405 0000 2DE9F047 		push	{r4, r5, r6, r7, r8, r9, r10, lr}
 406              		.cfi_def_cfa_offset 32
 407              		.cfi_offset 4, -32
 408              		.cfi_offset 5, -28
 409              		.cfi_offset 6, -24
 410              		.cfi_offset 7, -20
 411              		.cfi_offset 8, -16
 412              		.cfi_offset 9, -12
 413              		.cfi_offset 10, -8
 414              		.cfi_offset 14, -4
 415 0004 DFF8AC90 		ldr	r9, .L40+4
 416 0008 DFF8ACA0 		ldr	r10, .L40+8
 417 000c D9F80030 		ldr	r3, [r9]
 418 0010 BAF800C0 		ldrh	ip, [r10]
 419              	.LBB130:
 420              		.loc 2 61 0
 421 0014 264F     		ldr	r7, .L40
 422              		.loc 2 57 0
 423 0016 0278     		ldrb	r2, [r0]	@ zero_extendqisi2
 424              	.LBE130:
 425              		.loc 2 51 0
 426 0018 82B0     		sub	sp, sp, #8
 427              		.cfi_def_cfa_offset 40
 428 001a C0F57F48 		rsb	r8, r0, #65280
 429              	.LBB131:
 430              		.loc 2 57 0
 431 001e 4FF0000E 		mov	lr, #0
 432              	.LBE131:
 433              		.loc 2 51 0
 434 0022 0193     		str	r3, [sp, #4]
 435              	.LVL33:
 436              	.LBB132:
 437              		.loc 2 57 0
 438 0024 0146     		mov	r1, r0
 439 0026 00F27F25 		addw	r5, r0, #639
 440 002a 08F1FC08 		add	r8, r8, #252
 441              	.LBE132:
 442              		.loc 2 53 0
 443 002e 7646     		mov	r6, lr
 444              		.loc 2 52 0
 445 0030 7046     		mov	r0, lr
 446              	.LVL34:
 447              	.LBB133:
 448              		.loc 2 58 0
 449 0032 0123     		movs	r3, #1
 450              	.LVL35:
 451              	.L18:
 452              		.loc 2 56 0 discriminator 2
 453 0034 A942     		cmp	r1, r5
 454 0036 1AD0     		beq	.L36
 455              	.LVL36:
 456              	.L24:
ARM GAS  C:\Users\chlok\AppData\Local\Temp\cc6abUwe.s 			page 9


 457              		.loc 2 58 0
 458 0038 0133     		adds	r3, r3, #1
 459              	.LVL37:
 460              		.loc 2 57 0
 461 003a 11F8014F 		ldrb	r4, [r1, #1]!	@ zero_extendqisi2
 462              		.loc 2 58 0
 463 003e DBB2     		uxtb	r3, r3
 464              		.loc 2 59 0
 465 0040 052B     		cmp	r3, #5
 466              		.loc 2 57 0
 467 0042 2244     		add	r2, r2, r4
 468              	.LVL38:
 469              		.loc 2 59 0
 470 0044 F6D1     		bne	.L18
 471              		.loc 2 61 0
 472 0046 A7FB0232 		umull	r3, r2, r7, r2
 473              	.LVL39:
 474 004a 9208     		lsrs	r2, r2, #2
 475              	.LVL40:
 476              		.loc 2 62 0
 477 004c 042A     		cmp	r2, #4
 478 004e 1AD8     		bhi	.L20
 479              		.loc 2 64 0
 480 0050 2EB9     		cbnz	r6, .L21
 481 0052 08EB010C 		add	ip, r8, r1
 482 0056 1FFA8CFC 		uxth	ip, ip
 483              	.LVL41:
 484 005a 4FF0010E 		mov	lr, #1
 485              	.LVL42:
 486              	.L21:
 487              		.loc 2 69 0
 488 005e 0530     		adds	r0, r0, #5
 489              	.LVL43:
 490              		.loc 2 75 0
 491 0060 0022     		movs	r2, #0
 492              	.LVL44:
 493              		.loc 2 56 0
 494 0062 A942     		cmp	r1, r5
 495              		.loc 2 69 0
 496 0064 80B2     		uxth	r0, r0
 497              	.LVL45:
 498              		.loc 2 76 0
 499 0066 1346     		mov	r3, r2
 500 0068 4FF00106 		mov	r6, #1
 501              	.LVL46:
 502              		.loc 2 56 0
 503 006c E4D1     		bne	.L24
 504              	.LVL47:
 505              	.L36:
 506 006e BEF1000F 		cmp	lr, #0
 507 0072 19D1     		bne	.L37
 508              	.L25:
 509              	.LBE133:
 510              		.loc 2 79 0
 511 0074 0020     		movs	r0, #0
 512              	.LVL48:
 513              	.L23:
ARM GAS  C:\Users\chlok\AppData\Local\Temp\cc6abUwe.s 			page 10


 514              		.loc 2 80 0
 515 0076 019A     		ldr	r2, [sp, #4]
 516              	.LVL49:
 517 0078 D9F80030 		ldr	r3, [r9]
 518 007c 9A42     		cmp	r2, r3
 519 007e 11D1     		bne	.L38
 520 0080 02B0     		add	sp, sp, #8
 521              		.cfi_remember_state
 522              		.cfi_def_cfa_offset 32
 523              		@ sp needed
 524 0082 BDE8F087 		pop	{r4, r5, r6, r7, r8, r9, r10, pc}
 525              	.LVL50:
 526              	.L20:
 527              		.cfi_restore_state
 528              	.LBB134:
 529              		.loc 2 71 0
 530 0086 26B1     		cbz	r6, .L27
 531              		.loc 2 71 0 is_stmt 0 discriminator 1
 532 0088 052A     		cmp	r2, #5
 533 008a 05D1     		bne	.L39
 534              		.loc 2 75 0 is_stmt 1
 535 008c 0022     		movs	r2, #0
 536              	.LVL51:
 537              		.loc 2 76 0
 538 008e 1346     		mov	r3, r2
 539 0090 D0E7     		b	.L18
 540              	.LVL52:
 541              	.L27:
 542              		.loc 2 75 0
 543 0092 3246     		mov	r2, r6
 544              	.LVL53:
 545              		.loc 2 76 0
 546 0094 3346     		mov	r3, r6
 547 0096 CDE7     		b	.L18
 548              	.LVL54:
 549              	.L39:
 550 0098 BEF1000F 		cmp	lr, #0
 551 009c EBD0     		beq	.L23
 552 009e AAF800C0 		strh	ip, [r10]	@ movhi
 553 00a2 E8E7     		b	.L23
 554              	.LVL55:
 555              	.L38:
 556              	.LBE134:
 557              		.loc 2 80 0
 558 00a4 FFF7FEFF 		bl	__stack_chk_fail
 559              	.LVL56:
 560              	.L37:
 561 00a8 AAF800C0 		strh	ip, [r10]	@ movhi
 562 00ac E2E7     		b	.L25
 563              	.L41:
 564 00ae 00BF     		.align	2
 565              	.L40:
 566 00b0 CDCCCCCC 		.word	-858993459
 567 00b4 00000000 		.word	__stack_chk_guard
 568 00b8 00000000 		.word	.LANCHOR3
 569              		.cfi_endproc
 570              	.LFE258:
ARM GAS  C:\Users\chlok\AppData\Local\Temp\cc6abUwe.s 			page 11


 571              		.size	detection, .-detection
 572              		.global	__aeabi_f2d
 573              		.section	.text.ProcessImage,"ax",%progbits
 574              		.align	1
 575              		.p2align 4,,15
 576              		.syntax unified
 577              		.thumb
 578              		.thumb_func
 579              		.fpu fpv4-sp-d16
 580              		.type	ProcessImage, %function
 581              	ProcessImage:
 582              	.LFB259:
 583              		.loc 2 83 0
 584              		.cfi_startproc
 585              		@ args = 0, pretend = 0, frame = 648
 586              		@ frame_needed = 0, uses_anonymous_args = 0
 587              	.LVL57:
 588 0000 2DE9F047 		push	{r4, r5, r6, r7, r8, r9, r10, lr}
 589              		.cfi_def_cfa_offset 32
 590              		.cfi_offset 4, -32
 591              		.cfi_offset 5, -28
 592              		.cfi_offset 6, -24
 593              		.cfi_offset 7, -20
 594              		.cfi_offset 8, -16
 595              		.cfi_offset 9, -12
 596              		.cfi_offset 10, -8
 597              		.cfi_offset 14, -4
 598 0004 2DED028B 		vpush.64	{d8}
 599              		.cfi_def_cfa_offset 40
 600              		.cfi_offset 80, -40
 601              		.cfi_offset 81, -36
 602              	.LBB135:
 603              	.LBB136:
 604              		.loc 3 135 0
 605 0008 2A4A     		ldr	r2, .L52
 606              	.LBE136:
 607              	.LBE135:
 608              		.loc 2 83 0
 609 000a 2B4B     		ldr	r3, .L52+4
 610              	.LBB138:
 611              	.LBB137:
 612              		.loc 3 135 0
 613 000c 9269     		ldr	r2, [r2, #24]
 614 000e 2B49     		ldr	r1, .L52+8
 615 0010 9161     		str	r1, [r2, #24]
 616              	.LBE137:
 617              	.LBE138:
 618              		.loc 2 83 0
 619 0012 ADF5247D 		sub	sp, sp, #656
 620              		.cfi_def_cfa_offset 696
 621              		.loc 2 83 0
 622 0016 1B68     		ldr	r3, [r3]
 623 0018 A393     		str	r3, [sp, #652]
 624              		.loc 2 89 0
 625 001a 03A8     		add	r0, sp, #12
 626              	.LVL58:
 627 001c 4FF42072 		mov	r2, #640
ARM GAS  C:\Users\chlok\AppData\Local\Temp\cc6abUwe.s 			page 12


 628 0020 0021     		movs	r1, #0
 629 0022 FFF7FEFF 		bl	memset
 630              	.LVL59:
 631 0026 DFF8AC80 		ldr	r8, .L52+32
 632 002a 254F     		ldr	r7, .L52+12
 633              	.LBB139:
 634              	.LBB140:
 635              		.loc 6 143 0
 636 002c 254D     		ldr	r5, .L52+16
 637              	.LBE140:
 638              	.LBE139:
 639              		.loc 2 110 0
 640 002e 9FED268A 		vldr.32	s16, .L52+20
 641              		.loc 2 111 0
 642 0032 264E     		ldr	r6, .L52+24
 643              		.loc 2 90 0
 644 0034 4FF0000A 		mov	r10, #0
 645 0038 0DF28B24 		addw	r4, sp, #651
 646              	.LVL60:
 647              	.L45:
 648              	.LBB143:
 649              	.LBB141:
 650              		.loc 6 143 0
 651 003c 2846     		mov	r0, r5
 652 003e FFF7FEFF 		bl	chSemWait
 653              	.LVL61:
 654              	.LBE141:
 655              	.LBE143:
 656              		.loc 2 96 0
 657 0042 FFF7FEFF 		bl	dcmi_get_last_image_ptr
 658              	.LVL62:
 659              		.loc 2 102 0
 660 0046 BAF1000F 		cmp	r10, #0
 661 004a 04D0     		beq	.L43
 662              	.LVL63:
 663              	.LBB144:
 664              	.LBB142:
 665              		.loc 6 143 0
 666 004c 2846     		mov	r0, r5
 667              	.LVL64:
 668 004e FFF7FEFF 		bl	chSemWait
 669              	.LVL65:
 670              	.LBE142:
 671              	.LBE144:
 672              		.loc 2 96 0
 673 0052 FFF7FEFF 		bl	dcmi_get_last_image_ptr
 674              	.LVL66:
 675              	.L43:
 676 0056 0DF10B02 		add	r2, sp, #11
 677              	.LVL67:
 678              	.L44:
 679              	.LBB145:
 680              		.loc 2 105 0 discriminator 3
 681 005a 4378     		ldrb	r3, [r0, #1]	@ zero_extendqisi2
 682 005c 03F01F03 		and	r3, r3, #31
 683 0060 02F8013F 		strb	r3, [r2, #1]!
 684              	.LVL68:
ARM GAS  C:\Users\chlok\AppData\Local\Temp\cc6abUwe.s 			page 13


 685              		.loc 2 103 0 discriminator 3
 686 0064 A242     		cmp	r2, r4
 687 0066 00F10200 		add	r0, r0, #2
 688 006a F6D1     		bne	.L44
 689              	.LBE145:
 690              		.loc 2 108 0
 691 006c 03A8     		add	r0, sp, #12
 692 006e FFF7FEFF 		bl	detection
 693              	.LVL69:
 694              		.loc 2 110 0
 695 0072 07EE900A 		vmov	s15, r0	@ int
 696 0076 B8EEE77A 		vcvt.f32.s32	s14, s15
 697              		.loc 2 108 0
 698 007a 8146     		mov	r9, r0
 699              	.LVL70:
 700              		.loc 2 110 0
 701 007c C8EE077A 		vdiv.f32	s15, s16, s14
 702              		.loc 2 101 0
 703 0080 4FF0010A 		mov	r10, #1
 704              		.loc 2 110 0
 705 0084 C8ED007A 		vstr.32	s15, [r8]
 706              		.loc 2 111 0
 707 0088 17EE900A 		vmov	r0, s15
 708              	.LVL71:
 709 008c FFF7FEFF 		bl	__aeabi_f2d
 710              	.LVL72:
 711 0090 B7F800C0 		ldrh	ip, [r7]
 712 0094 CDF800C0 		str	ip, [sp]
 713 0098 0246     		mov	r2, r0
 714 009a 0B46     		mov	r3, r1
 715 009c CDF80490 		str	r9, [sp, #4]
 716 00a0 3146     		mov	r1, r6
 717 00a2 0B48     		ldr	r0, .L52+28
 718 00a4 FFF7FEFF 		bl	chprintf.constprop.0
 719              	.LVL73:
 720              		.loc 2 115 0
 721 00a8 4FF42071 		mov	r1, #640
 722 00ac 03A8     		add	r0, sp, #12
 723 00ae FFF7FEFF 		bl	SendUint8ToComputer
 724              	.LVL74:
 725 00b2 C3E7     		b	.L45
 726              	.L53:
 727              		.align	2
 728              	.L52:
 729 00b4 00000000 		.word	ch
 730 00b8 00000000 		.word	__stack_chk_guard
 731 00bc 00000000 		.word	.LANCHOR4
 732 00c0 00000000 		.word	.LANCHOR3
 733 00c4 00000000 		.word	.LANCHOR2
 734 00c8 0000AF44 		.word	1152319488
 735 00cc 00000000 		.word	.LC0
 736 00d0 00000000 		.word	SDU1
 737 00d4 00000000 		.word	.LANCHOR5
 738              		.cfi_endproc
 739              	.LFE259:
 740              		.size	ProcessImage, .-ProcessImage
 741              		.section	.text.get_distance_cm,"ax",%progbits
ARM GAS  C:\Users\chlok\AppData\Local\Temp\cc6abUwe.s 			page 14


 742              		.align	1
 743              		.p2align 4,,15
 744              		.global	get_distance_cm
 745              		.syntax unified
 746              		.thumb
 747              		.thumb_func
 748              		.fpu fpv4-sp-d16
 749              		.type	get_distance_cm, %function
 750              	get_distance_cm:
 751              	.LFB260:
 752              		.loc 2 120 0
 753              		.cfi_startproc
 754              		@ args = 0, pretend = 0, frame = 8
 755              		@ frame_needed = 0, uses_anonymous_args = 0
 756 0000 00B5     		push	{lr}
 757              		.cfi_def_cfa_offset 4
 758              		.cfi_offset 14, -4
 759 0002 084B     		ldr	r3, .L58
 760              		.loc 2 121 0
 761 0004 0849     		ldr	r1, .L58+4
 762              		.loc 2 120 0
 763 0006 1A68     		ldr	r2, [r3]
 764              		.loc 2 122 0
 765 0008 91ED000A 		vldr.32	s0, [r1]
 766              		.loc 2 120 0
 767 000c 83B0     		sub	sp, sp, #12
 768              		.cfi_def_cfa_offset 16
 769              		.loc 2 120 0
 770 000e 0192     		str	r2, [sp, #4]
 771              		.loc 2 122 0
 772 0010 019A     		ldr	r2, [sp, #4]
 773 0012 1B68     		ldr	r3, [r3]
 774 0014 9A42     		cmp	r2, r3
 775 0016 02D1     		bne	.L57
 776 0018 03B0     		add	sp, sp, #12
 777              		.cfi_remember_state
 778              		.cfi_def_cfa_offset 4
 779              		@ sp needed
 780 001a 5DF804FB 		ldr	pc, [sp], #4
 781              	.L57:
 782              		.cfi_restore_state
 783 001e FFF7FEFF 		bl	__stack_chk_fail
 784              	.LVL75:
 785              	.L59:
 786 0022 00BF     		.align	2
 787              	.L58:
 788 0024 00000000 		.word	__stack_chk_guard
 789 0028 00000000 		.word	.LANCHOR5
 790              		.cfi_endproc
 791              	.LFE260:
 792              		.size	get_distance_cm, .-get_distance_cm
 793              		.section	.text.get_line_pos,"ax",%progbits
 794              		.align	1
 795              		.p2align 4,,15
 796              		.global	get_line_pos
 797              		.syntax unified
 798              		.thumb
ARM GAS  C:\Users\chlok\AppData\Local\Temp\cc6abUwe.s 			page 15


 799              		.thumb_func
 800              		.fpu fpv4-sp-d16
 801              		.type	get_line_pos, %function
 802              	get_line_pos:
 803              	.LFB261:
 804              		.loc 2 124 0
 805              		.cfi_startproc
 806              		@ args = 0, pretend = 0, frame = 8
 807              		@ frame_needed = 0, uses_anonymous_args = 0
 808 0000 00B5     		push	{lr}
 809              		.cfi_def_cfa_offset 4
 810              		.cfi_offset 14, -4
 811 0002 074B     		ldr	r3, .L64
 812              		.loc 2 125 0
 813 0004 0749     		ldr	r1, .L64+4
 814              		.loc 2 124 0
 815 0006 1A68     		ldr	r2, [r3]
 816              		.loc 2 126 0
 817 0008 0888     		ldrh	r0, [r1]
 818              		.loc 2 124 0
 819 000a 83B0     		sub	sp, sp, #12
 820              		.cfi_def_cfa_offset 16
 821              		.loc 2 124 0
 822 000c 0192     		str	r2, [sp, #4]
 823              		.loc 2 126 0
 824 000e 019A     		ldr	r2, [sp, #4]
 825 0010 1B68     		ldr	r3, [r3]
 826 0012 9A42     		cmp	r2, r3
 827 0014 02D1     		bne	.L63
 828 0016 03B0     		add	sp, sp, #12
 829              		.cfi_remember_state
 830              		.cfi_def_cfa_offset 4
 831              		@ sp needed
 832 0018 5DF804FB 		ldr	pc, [sp], #4
 833              	.L63:
 834              		.cfi_restore_state
 835 001c FFF7FEFF 		bl	__stack_chk_fail
 836              	.LVL76:
 837              	.L65:
 838              		.align	2
 839              	.L64:
 840 0020 00000000 		.word	__stack_chk_guard
 841 0024 00000000 		.word	.LANCHOR3
 842              		.cfi_endproc
 843              	.LFE261:
 844              		.size	get_line_pos, .-get_line_pos
 845              		.section	.text.process_image_start,"ax",%progbits
 846              		.align	1
 847              		.p2align 4,,15
 848              		.global	process_image_start
 849              		.syntax unified
 850              		.thumb
 851              		.thumb_func
 852              		.fpu fpv4-sp-d16
 853              		.type	process_image_start, %function
 854              	process_image_start:
 855              	.LFB262:
ARM GAS  C:\Users\chlok\AppData\Local\Temp\cc6abUwe.s 			page 16


 856              		.loc 2 128 0
 857              		.cfi_startproc
 858              		@ args = 0, pretend = 0, frame = 8
 859              		@ frame_needed = 0, uses_anonymous_args = 0
 860 0000 30B5     		push	{r4, r5, lr}
 861              		.cfi_def_cfa_offset 12
 862              		.cfi_offset 4, -12
 863              		.cfi_offset 5, -8
 864              		.cfi_offset 14, -4
 865 0002 0E4C     		ldr	r4, .L70
 866              		.loc 2 129 0
 867 0004 0E4B     		ldr	r3, .L70+4
 868              		.loc 2 128 0
 869 0006 2268     		ldr	r2, [r4]
 870              		.loc 2 129 0
 871 0008 0E48     		ldr	r0, .L70+8
 872              		.loc 2 128 0
 873 000a 85B0     		sub	sp, sp, #20
 874              		.cfi_def_cfa_offset 32
 875              		.loc 2 129 0
 876 000c 0025     		movs	r5, #0
 877              		.loc 2 128 0
 878 000e 0392     		str	r2, [sp, #12]
 879              		.loc 2 129 0
 880 0010 4FF4AF61 		mov	r1, #1400
 881 0014 4022     		movs	r2, #64
 882 0016 0095     		str	r5, [sp]
 883 0018 FFF7FEFF 		bl	chThdCreateStatic
 884              	.LVL77:
 885              		.loc 2 130 0
 886 001c 0A4B     		ldr	r3, .L70+12
 887 001e 0095     		str	r5, [sp]
 888 0020 4022     		movs	r2, #64
 889 0022 0A48     		ldr	r0, .L70+16
 890 0024 4FF41E71 		mov	r1, #632
 891 0028 FFF7FEFF 		bl	chThdCreateStatic
 892              	.LVL78:
 893              		.loc 2 131 0
 894 002c 039A     		ldr	r2, [sp, #12]
 895 002e 2368     		ldr	r3, [r4]
 896 0030 9A42     		cmp	r2, r3
 897 0032 01D1     		bne	.L69
 898 0034 05B0     		add	sp, sp, #20
 899              		.cfi_remember_state
 900              		.cfi_def_cfa_offset 12
 901              		@ sp needed
 902 0036 30BD     		pop	{r4, r5, pc}
 903              	.L69:
 904              		.cfi_restore_state
 905 0038 FFF7FEFF 		bl	__stack_chk_fail
 906              	.LVL79:
 907              	.L71:
 908              		.align	2
 909              	.L70:
 910 003c 00000000 		.word	__stack_chk_guard
 911 0040 00000000 		.word	ProcessImage
 912 0044 00000000 		.word	.LANCHOR6
ARM GAS  C:\Users\chlok\AppData\Local\Temp\cc6abUwe.s 			page 17


 913 0048 00000000 		.word	CaptureImage
 914 004c 00000000 		.word	.LANCHOR7
 915              		.cfi_endproc
 916              	.LFE262:
 917              		.size	process_image_start, .-process_image_start
 918              		.section	.bss.distance_cm,"aw",%nobits
 919              		.align	2
 920              		.set	.LANCHOR5,. + 0
 921              		.type	distance_cm, %object
 922              		.size	distance_cm, 4
 923              	distance_cm:
 924 0000 00000000 		.space	4
 925              		.section	.bss.line_pos,"aw",%nobits
 926              		.align	1
 927              		.set	.LANCHOR3,. + 0
 928              		.type	line_pos, %object
 929              		.size	line_pos, 2
 930              	line_pos:
 931 0000 0000     		.space	2
 932              		.section	.bss.waCaptureImage,"aw",%nobits
 933              		.align	3
 934              		.set	.LANCHOR7,. + 0
 935              		.type	waCaptureImage, %object
 936              		.size	waCaptureImage, 632
 937              	waCaptureImage:
 938 0000 00000000 		.space	632
 938      00000000 
 938      00000000 
 938      00000000 
 938      00000000 
 939              		.section	.bss.waProcessImage,"aw",%nobits
 940              		.align	3
 941              		.set	.LANCHOR6,. + 0
 942              		.type	waProcessImage, %object
 943              		.size	waProcessImage, 1400
 944              	waProcessImage:
 945 0000 00000000 		.space	1400
 945      00000000 
 945      00000000 
 945      00000000 
 945      00000000 
 946              		.section	.data.image_ready_sem,"aw",%progbits
 947              		.align	2
 948              		.set	.LANCHOR2,. + 0
 949              		.type	image_ready_sem, %object
 950              		.size	image_ready_sem, 12
 951              	image_ready_sem:
 952 0000 00000000 		.word	image_ready_sem
 953 0004 00000000 		.word	image_ready_sem
 954 0008 00000000 		.word	0
 955              		.section	.rodata.__FUNCTION__.11331,"a",%progbits
 956              		.align	2
 957              		.set	.LANCHOR0,. + 0
 958              		.type	__FUNCTION__.11331, %object
 959              		.size	__FUNCTION__.11331, 13
 960              	__FUNCTION__.11331:
 961 0000 43617074 		.ascii	"CaptureImage\000"
ARM GAS  C:\Users\chlok\AppData\Local\Temp\cc6abUwe.s 			page 18


 961      75726549 
 961      6D616765 
 961      00
 962              		.section	.rodata.__FUNCTION__.11349,"a",%progbits
 963              		.align	2
 964              		.set	.LANCHOR4,. + 0
 965              		.type	__FUNCTION__.11349, %object
 966              		.size	__FUNCTION__.11349, 13
 967              	__FUNCTION__.11349:
 968 0000 50726F63 		.ascii	"ProcessImage\000"
 968      65737349 
 968      6D616765 
 968      00
 969              		.section	.rodata.__func__.7153,"a",%progbits
 970              		.align	2
 971              		.set	.LANCHOR1,. + 0
 972              		.type	__func__.7153, %object
 973              		.size	__func__.7153, 12
 974              	__func__.7153:
 975 0000 63685379 		.ascii	"chSysUnlock\000"
 975      73556E6C 
 975      6F636B00 
 976              		.section	.rodata.chprintf.constprop.0.str1.4,"aMS",%progbits,1
 977              		.align	2
 978              	.LC0:
 979 0000 44697374 		.ascii	"Distance = %f, Position = %d, width = %d\012\000"
 979      616E6365 
 979      203D2025 
 979      662C2050 
 979      6F736974 
 980              		.text
 981              	.Letext0:
 982              		.file 8 "c:\\users\\chlok\\downloads\\eclipse_e-puck2_win32_29_jan_2020\\eclipse_e-puck2\\tools\\g
 983              		.file 9 "c:\\users\\chlok\\downloads\\eclipse_e-puck2_win32_29_jan_2020\\eclipse_e-puck2\\tools\\g
 984              		.file 10 "c:\\users\\chlok\\downloads\\eclipse_e-puck2_win32_29_jan_2020\\eclipse_e-puck2\\tools\\
 985              		.file 11 "../../lib/e-puck2_main-processor/ChibiOS//os/rt/ports/ARMCMx/compilers/GCC/chtypes.h"
 986              		.file 12 "../../lib/e-puck2_main-processor/ChibiOS//os/rt/include/chsystypes.h"
 987              		.file 13 "../../lib/e-puck2_main-processor/ChibiOS//os/rt/include/chschd.h"
 988              		.file 14 "../../lib/e-puck2_main-processor/ChibiOS//os/ext/CMSIS/include/core_cm4.h"
 989              		.file 15 "../../lib/e-puck2_main-processor/ChibiOS//os/ext/CMSIS/ST/system_stm32f4xx.h"
 990              		.file 16 "../../lib/e-puck2_main-processor/ChibiOS//os/ext/CMSIS/ST/stm32f407xx.h"
 991              		.file 17 "../../lib/e-puck2_main-processor/ChibiOS//os/rt/ports/ARMCMx/chcore.h"
 992              		.file 18 "../../lib/e-puck2_main-processor/ChibiOS//os/rt/ports/ARMCMx/chcore_v7m.h"
 993              		.file 19 "../../lib/e-puck2_main-processor/ChibiOS//os/rt/include/chdebug.h"
 994              		.file 20 "../../lib/e-puck2_main-processor/ChibiOS//os/rt/include/chtm.h"
 995              		.file 21 "../../lib/e-puck2_main-processor/ChibiOS//os/rt/include/chstats.h"
 996              		.file 22 "../../lib/e-puck2_main-processor/ChibiOS//os/rt/include/chsem.h"
 997              		.file 23 "../../lib/e-puck2_main-processor/ChibiOS//os/rt/include/chmtx.h"
 998              		.file 24 "../../lib/e-puck2_main-processor/ChibiOS//os/rt/include/chevents.h"
 999              		.file 25 "../../lib/e-puck2_main-processor/ChibiOS//os/rt/include/chqueues.h"
 1000              		.file 26 "../../lib/e-puck2_main-processor/ChibiOS//os/rt/include/chstreams.h"
 1001              		.file 27 "../../lib/e-puck2_main-processor/ChibiOS//os/hal/ports/STM32/STM32F4xx/stm32_dma.h"
 1002              		.file 28 "../../lib/e-puck2_main-processor/ChibiOS//os/hal/include/hal_ioblock.h"
 1003              		.file 29 "../../lib/e-puck2_main-processor/ChibiOS//os/hal/ports/STM32/LLD/GPIOv2/pal_lld.h"
 1004              		.file 30 "../../lib/e-puck2_main-processor/ChibiOS//os/hal/include/adc.h"
 1005              		.file 31 "../../lib/e-puck2_main-processor/ChibiOS//os/hal/ports/STM32/STM32F4xx/adc_lld.h"
 1006              		.file 32 "../../lib/e-puck2_main-processor/ChibiOS//os/hal/include/can.h"
ARM GAS  C:\Users\chlok\AppData\Local\Temp\cc6abUwe.s 			page 19


 1007              		.file 33 "../../lib/e-puck2_main-processor/ChibiOS//os/hal/ports/STM32/LLD/can_lld.h"
 1008              		.file 34 "../../lib/e-puck2_main-processor/ChibiOS//os/hal/include/dac.h"
 1009              		.file 35 "../../lib/e-puck2_main-processor/ChibiOS//os/hal/ports/STM32/LLD/DACv1/dac_lld.h"
 1010              		.file 36 "../../lib/e-puck2_main-processor/ChibiOS//os/hal/include/ext.h"
 1011              		.file 37 "../../lib/e-puck2_main-processor/ChibiOS//os/hal/ports/STM32/LLD/ext_lld.h"
 1012              		.file 38 "../../lib/e-puck2_main-processor/ChibiOS//os/hal/include/gpt.h"
 1013              		.file 39 "../../lib/e-puck2_main-processor/ChibiOS//os/hal/ports/STM32/LLD/TIMv1/gpt_lld.h"
 1014              		.file 40 "../../lib/e-puck2_main-processor/ChibiOS//os/hal/ports/STM32/LLD/TIMv1/stm32_tim.h"
 1015              		.file 41 "../../lib/e-puck2_main-processor/ChibiOS//os/hal/include/i2c.h"
 1016              		.file 42 "../../lib/e-puck2_main-processor/ChibiOS//os/hal/ports/STM32/LLD/I2Cv1/i2c_lld.h"
 1017              		.file 43 "../../lib/e-puck2_main-processor/ChibiOS//os/hal/include/i2s.h"
 1018              		.file 44 "../../lib/e-puck2_main-processor/ChibiOS//os/hal/ports/STM32/LLD/SPIv1/i2s_lld.h"
 1019              		.file 45 "../../lib/e-puck2_main-processor/ChibiOS//os/hal/include/pwm.h"
 1020              		.file 46 "../../lib/e-puck2_main-processor/ChibiOS//os/hal/ports/STM32/LLD/TIMv1/pwm_lld.h"
 1021              		.file 47 "../../lib/e-puck2_main-processor/ChibiOS//os/hal/include/serial.h"
 1022              		.file 48 "../../lib/e-puck2_main-processor/ChibiOS//os/hal/ports/STM32/LLD/USARTv1/serial_lld.h"
 1023              		.file 49 "../../lib/e-puck2_main-processor/ChibiOS//os/hal/include/sdc.h"
 1024              		.file 50 "../../lib/e-puck2_main-processor/ChibiOS//os/hal/ports/STM32/LLD/sdc_lld.h"
 1025              		.file 51 "../../lib/e-puck2_main-processor/ChibiOS//os/hal/include/spi.h"
 1026              		.file 52 "../../lib/e-puck2_main-processor/ChibiOS//os/hal/ports/STM32/LLD/SPIv1/spi_lld.h"
 1027              		.file 53 "../../lib/e-puck2_main-processor/ChibiOS//os/hal/include/usb.h"
 1028              		.file 54 "../../lib/e-puck2_main-processor/ChibiOS//os/hal/ports/STM32/LLD/OTGv1/usb_lld.h"
 1029              		.file 55 "../../lib/e-puck2_main-processor/ChibiOS//os/hal/ports/STM32/LLD/OTGv1/stm32_otg.h"
 1030              		.file 56 "../../lib/e-puck2_main-processor/ChibiOS//os/hal/include/serial_usb.h"
 1031              		.file 57 "c:\\users\\chlok\\downloads\\eclipse_e-puck2_win32_29_jan_2020\\eclipse_e-puck2\\tools\\
 1032              		.file 58 "<built-in>"
 1033              		.file 59 "../../lib/e-puck2_main-processor/src/usbcfg.h"
 1034              		.file 60 "../../lib/e-puck2_main-processor/ChibiOS_ext/os/hal/include/../ports/STM32/STM32F4xx/dcm
 1035              		.file 61 "../../lib/e-puck2_main-processor/src/camera/po8030.h"
 1036              		.file 62 "../../lib/e-puck2_main-processor/src/camera/dcmi_camera.h"
 1037              		.file 63 "c:\\users\\chlok\\downloads\\eclipse_e-puck2_win32_29_jan_2020\\eclipse_e-puck2\\tools\\
 1038              		.file 64 "c:\\users\\chlok\\downloads\\eclipse_e-puck2_win32_29_jan_2020\\eclipse_e-puck2\\tools\\
 1039              		.file 65 "c:\\users\\chlok\\downloads\\eclipse_e-puck2_win32_29_jan_2020\\eclipse_e-puck2\\tools\\
 1040              		.file 66 "../../lib/e-puck2_main-processor/src/msgbus/messagebus.h"
 1041              		.file 67 "c:\\users\\chlok\\downloads\\eclipse_e-puck2_win32_29_jan_2020\\eclipse_e-puck2\\tools\\
 1042              		.file 68 "c:\\users\\chlok\\downloads\\eclipse_e-puck2_win32_29_jan_2020\\eclipse_e-puck2\\tools\\
 1043              		.file 69 "../../lib/e-puck2_main-processor/src/parameter/parameter.h"
 1044              		.file 70 "./main.h"
 1045              		.file 71 "../../lib/e-puck2_main-processor/ChibiOS//os/rt/include/chthreads.h"