ARM GAS  C:\Users\chlok\AppData\Local\Temp\cc5mLMWN.s 			page 1


   1              		.cpu cortex-m4
   2              		.eabi_attribute 27, 1
   3              		.eabi_attribute 28, 1
   4              		.eabi_attribute 20, 1
   5              		.eabi_attribute 21, 1
   6              		.eabi_attribute 23, 3
   7              		.eabi_attribute 24, 1
   8              		.eabi_attribute 25, 1
   9              		.eabi_attribute 26, 1
  10              		.eabi_attribute 30, 2
  11              		.eabi_attribute 34, 1
  12              		.eabi_attribute 18, 4
  13              		.file	"audio_processing.c"
  14              		.text
  15              	.Ltext0:
  16              		.cfi_sections	.debug_frame
  17              		.section	.text.chprintf.constprop.0,"ax",%progbits
  18              		.align	1
  19              		.p2align 4,,15
  20              		.syntax unified
  21              		.thumb
  22              		.thumb_func
  23              		.fpu fpv4-sp-d16
  24              		.type	chprintf.constprop.0, %function
  25              	chprintf.constprop.0:
  26              	.LFB297:
  27              		.file 1 "../../lib/e-puck2_main-processor/ChibiOS//os/hal/lib/streams/chprintf.h"
  28              		.loc 1 69 0
  29              		.cfi_startproc
  30              		@ args = 4, pretend = 12, frame = 8
  31              		@ frame_needed = 0, uses_anonymous_args = 1
  32              	.LVL0:
  33 0000 0EB4     		push	{r1, r2, r3}
  34              		.cfi_def_cfa_offset 12
  35              		.cfi_offset 1, -12
  36              		.cfi_offset 2, -8
  37              		.cfi_offset 3, -4
  38 0002 10B5     		push	{r4, lr}
  39              		.cfi_def_cfa_offset 20
  40              		.cfi_offset 4, -20
  41              		.cfi_offset 14, -16
  42 0004 0A4C     		ldr	r4, .L6
  43              		.loc 1 74 0
  44 0006 0B49     		ldr	r1, .L6+4
  45              		.loc 1 69 0
  46 0008 2368     		ldr	r3, [r4]
  47              		.loc 1 74 0
  48 000a 0B48     		ldr	r0, .L6+8
  49              	.LVL1:
  50              		.loc 1 69 0
  51 000c 83B0     		sub	sp, sp, #12
  52              		.cfi_def_cfa_offset 32
  53              		.loc 1 69 0
  54 000e 0193     		str	r3, [sp, #4]
  55              	.LVL2:
  56              		.loc 1 73 0
  57 0010 06AB     		add	r3, sp, #24
ARM GAS  C:\Users\chlok\AppData\Local\Temp\cc5mLMWN.s 			page 2


  58              		.loc 1 74 0
  59 0012 1A46     		mov	r2, r3
  60              		.loc 1 73 0
  61 0014 0093     		str	r3, [sp]
  62              		.loc 1 74 0
  63 0016 FFF7FEFF 		bl	chvprintf
  64              	.LVL3:
  65              		.loc 1 78 0
  66 001a 019A     		ldr	r2, [sp, #4]
  67 001c 2368     		ldr	r3, [r4]
  68 001e 9A42     		cmp	r2, r3
  69 0020 04D1     		bne	.L5
  70 0022 03B0     		add	sp, sp, #12
  71              		.cfi_remember_state
  72              		.cfi_def_cfa_offset 20
  73              		@ sp needed
  74 0024 BDE81040 		pop	{r4, lr}
  75              		.cfi_restore 14
  76              		.cfi_restore 4
  77              		.cfi_def_cfa_offset 12
  78 0028 03B0     		add	sp, sp, #12
  79              		.cfi_restore 3
  80              		.cfi_restore 2
  81              		.cfi_restore 1
  82              		.cfi_def_cfa_offset 0
  83 002a 7047     		bx	lr
  84              	.L5:
  85              		.cfi_restore_state
  86 002c FFF7FEFF 		bl	__stack_chk_fail
  87              	.LVL4:
  88              	.L7:
  89              		.align	2
  90              	.L6:
  91 0030 00000000 		.word	__stack_chk_guard
  92 0034 00000000 		.word	.LC0
  93 0038 00000000 		.word	SDU1
  94              		.cfi_endproc
  95              	.LFE297:
  96              		.size	chprintf.constprop.0, .-chprintf.constprop.0
  97              		.section	.text.get_position_freq,"ax",%progbits
  98              		.align	1
  99              		.p2align 4,,15
 100              		.global	get_position_freq
 101              		.syntax unified
 102              		.thumb
 103              		.thumb_func
 104              		.fpu fpv4-sp-d16
 105              		.type	get_position_freq, %function
 106              	get_position_freq:
 107              	.LFB290:
 108              		.file 2 "audio_processing.c"
 109              		.loc 2 57 0
 110              		.cfi_startproc
 111              		@ args = 0, pretend = 0, frame = 8
 112              		@ frame_needed = 0, uses_anonymous_args = 0
 113 0000 00B5     		push	{lr}
 114              		.cfi_def_cfa_offset 4
ARM GAS  C:\Users\chlok\AppData\Local\Temp\cc5mLMWN.s 			page 3


 115              		.cfi_offset 14, -4
 116              		.loc 2 58 0
 117 0002 0D4A     		ldr	r2, .L12
 118 0004 0D4B     		ldr	r3, .L12+4
 119 0006 B2F90010 		ldrsh	r1, [r2]
 120              		.loc 2 57 0
 121 000a 0D4A     		ldr	r2, .L12+8
 122              		.loc 2 58 0
 123 000c 03EB8103 		add	r3, r3, r1, lsl #2
 124              		.loc 2 57 0
 125 0010 83B0     		sub	sp, sp, #12
 126              		.cfi_def_cfa_offset 16
 127              		.loc 2 58 0
 128 0012 D3ED007A 		vldr.32	s15, [r3]
 129              		.loc 2 57 0
 130 0016 1368     		ldr	r3, [r2]
 131 0018 0193     		str	r3, [sp, #4]
 132              		.loc 2 59 0
 133 001a 0199     		ldr	r1, [sp, #4]
 134 001c 1368     		ldr	r3, [r2]
 135 001e 9942     		cmp	r1, r3
 136 0020 07D1     		bne	.L11
 137 0022 FCEEE77A 		vcvt.u32.f32	s15, s15
 138 0026 17EE902A 		vmov	r2, s15	@ int
 139 002a 90B2     		uxth	r0, r2
 140 002c 03B0     		add	sp, sp, #12
 141              		.cfi_remember_state
 142              		.cfi_def_cfa_offset 4
 143              		@ sp needed
 144 002e 5DF804FB 		ldr	pc, [sp], #4
 145              	.L11:
 146              		.cfi_restore_state
 147 0032 FFF7FEFF 		bl	__stack_chk_fail
 148              	.LVL5:
 149              	.L13:
 150 0036 00BF     		.align	2
 151              	.L12:
 152 0038 00000000 		.word	.LANCHOR0
 153 003c 00000000 		.word	micLeft_output
 154 0040 00000000 		.word	__stack_chk_guard
 155              		.cfi_endproc
 156              	.LFE290:
 157              		.size	get_position_freq, .-get_position_freq
 158              		.global	__aeabi_f2d
 159              		.section	.text.detectPeak,"ax",%progbits
 160              		.align	1
 161              		.p2align 4,,15
 162              		.global	detectPeak
 163              		.syntax unified
 164              		.thumb
 165              		.thumb_func
 166              		.fpu fpv4-sp-d16
 167              		.type	detectPeak, %function
 168              	detectPeak:
 169              	.LFB291:
 170              		.loc 2 62 0
 171              		.cfi_startproc
ARM GAS  C:\Users\chlok\AppData\Local\Temp\cc5mLMWN.s 			page 4


 172              		@ args = 0, pretend = 0, frame = 8
 173              		@ frame_needed = 0, uses_anonymous_args = 0
 174              	.LVL6:
 175 0000 D0B5     		push	{r4, r6, r7, lr}
 176              		.cfi_def_cfa_offset 16
 177              		.cfi_offset 4, -16
 178              		.cfi_offset 6, -12
 179              		.cfi_offset 7, -8
 180              		.cfi_offset 14, -4
 181 0002 2DED028B 		vpush.64	{d8}
 182              		.cfi_def_cfa_offset 24
 183              		.cfi_offset 80, -24
 184              		.cfi_offset 81, -20
 185 0006 1F4C     		ldr	r4, .L24
 186 0008 1F4B     		ldr	r3, .L24+4
 187 000a 2268     		ldr	r2, [r4]
 188              		.loc 2 65 0
 189 000c DFED1F7A 		vldr.32	s15, .L24+8
 190              		.loc 2 63 0
 191 0010 9FED1F8A 		vldr.32	s16, .L24+12
 192              	.LBB30:
 193              		.loc 2 66 0
 194 0014 1F49     		ldr	r1, .L24+16
 195              	.LBE30:
 196              		.loc 2 62 0
 197 0016 84B0     		sub	sp, sp, #16
 198              		.cfi_def_cfa_offset 40
 199 0018 2830     		adds	r0, r0, #40
 200              	.LVL7:
 201              		.loc 2 62 0
 202 001a 0392     		str	r2, [sp, #12]
 203              	.LVL8:
 204              	.L18:
 205              	.LBB31:
 206              		.loc 2 68 0
 207 001c B0EC017A 		vldmia.32	r0!, {s14}
 208 0020 B4EEC87A 		vcmpe.f32	s14, s16
 209 0024 F1EE10FA 		vmrs	APSR_nzcv, FPSCR
 210 0028 0CDD     		ble	.L15
 211              	.LVL9:
 212              		.loc 2 72 0
 213 002a 002B     		cmp	r3, #0
 214 002c 1A46     		mov	r2, r3
 215 002e B8BF     		it	lt
 216 0030 03F2FF12 		addwlt	r2, r3, #511
 217 0034 5212     		asrs	r2, r2, #9
 218 0036 9632     		adds	r2, r2, #150
 219 0038 07EE902A 		vmov	s15, r2	@ int
 220 003c F8EEE77A 		vcvt.f32.s32	s15, s15
 221              	.LVL10:
 222              		.loc 2 70 0
 223 0040 B0EE478A 		vmov.f32	s16, s14
 224              	.LVL11:
 225              	.L15:
 226 0044 963B     		subs	r3, r3, #150
 227              		.loc 2 66 0 discriminator 2
 228 0046 8B42     		cmp	r3, r1
ARM GAS  C:\Users\chlok\AppData\Local\Temp\cc5mLMWN.s 			page 5


 229 0048 E8D1     		bne	.L18
 230              	.LBE31:
 231              		.loc 2 76 0
 232 004a 17EE900A 		vmov	r0, s15
 233 004e FFF7FEFF 		bl	__aeabi_f2d
 234              	.LVL12:
 235 0052 0646     		mov	r6, r0
 236 0054 18EE100A 		vmov	r0, s16
 237 0058 0F46     		mov	r7, r1
 238 005a FFF7FEFF 		bl	__aeabi_f2d
 239              	.LVL13:
 240 005e 3246     		mov	r2, r6
 241 0060 CDE90001 		strd	r0, [sp]
 242 0064 3B46     		mov	r3, r7
 243 0066 0C49     		ldr	r1, .L24+20
 244 0068 0C48     		ldr	r0, .L24+24
 245 006a FFF7FEFF 		bl	chprintf.constprop.0
 246              	.LVL14:
 247              		.loc 2 78 0
 248 006e 039A     		ldr	r2, [sp, #12]
 249 0070 2368     		ldr	r3, [r4]
 250 0072 9A42     		cmp	r2, r3
 251 0074 03D1     		bne	.L23
 252 0076 04B0     		add	sp, sp, #16
 253              		.cfi_remember_state
 254              		.cfi_def_cfa_offset 24
 255              		@ sp needed
 256 0078 BDEC028B 		vldm	sp!, {d8}
 257              		.cfi_restore 80
 258              		.cfi_restore 81
 259              		.cfi_def_cfa_offset 16
 260              	.LVL15:
 261 007c D0BD     		pop	{r4, r6, r7, pc}
 262              	.LVL16:
 263              	.L23:
 264              		.cfi_restore_state
 265 007e FFF7FEFF 		bl	__stack_chk_fail
 266              	.LVL17:
 267              	.L25:
 268 0082 00BF     		.align	2
 269              	.L24:
 270 0084 00000000 		.word	__stack_chk_guard
 271 0088 24FAFFFF 		.word	-1500
 272 008c 00000000 		.word	0
 273 0090 00401C46 		.word	1176256512
 274 0094 72DAFEFF 		.word	-75150
 275 0098 00000000 		.word	.LC0
 276 009c 00000000 		.word	SDU1
 277              		.cfi_endproc
 278              	.LFE291:
 279              		.size	detectPeak, .-detectPeak
 280              		.section	.text.sound_remote,"ax",%progbits
 281              		.align	1
 282              		.p2align 4,,15
 283              		.global	sound_remote
 284              		.syntax unified
 285              		.thumb
ARM GAS  C:\Users\chlok\AppData\Local\Temp\cc5mLMWN.s 			page 6


 286              		.thumb_func
 287              		.fpu fpv4-sp-d16
 288              		.type	sound_remote, %function
 289              	sound_remote:
 290              	.LFB292:
 291              		.loc 2 79 0
 292              		.cfi_startproc
 293              		@ args = 0, pretend = 0, frame = 8
 294              		@ frame_needed = 0, uses_anonymous_args = 0
 295              	.LVL18:
 296 0000 70B5     		push	{r4, r5, r6, lr}
 297              		.cfi_def_cfa_offset 16
 298              		.cfi_offset 4, -16
 299              		.cfi_offset 5, -12
 300              		.cfi_offset 6, -8
 301              		.cfi_offset 14, -4
 302 0002 134D     		ldr	r5, .L40
 303 0004 134E     		ldr	r6, .L40+4
 304 0006 2B68     		ldr	r3, [r5]
 305 0008 B6F90040 		ldrsh	r4, [r6]
 306              		.loc 2 80 0
 307 000c 9FED127A 		vldr.32	s14, .L40+8
 308              		.loc 2 79 0
 309 0010 82B0     		sub	sp, sp, #8
 310              		.cfi_def_cfa_offset 24
 311 0012 2830     		adds	r0, r0, #40
 312              	.LVL19:
 313              		.loc 2 79 0
 314 0014 0193     		str	r3, [sp, #4]
 315              	.LVL20:
 316 0016 0021     		movs	r1, #0
 317 0018 0A23     		movs	r3, #10
 318              	.LBB32:
 319              		.loc 2 83 0
 320 001a 40F2F512 		movw	r2, #501
 321              	.LVL21:
 322              	.L29:
 323              		.loc 2 84 0
 324 001e F0EC017A 		vldmia.32	r0!, {s15}
 325 0022 F4EEC77A 		vcmpe.f32	s15, s14
 326 0026 F1EE10FA 		vmrs	APSR_nzcv, FPSCR
 327 002a 03DD     		ble	.L27
 328              	.LVL22:
 329              		.loc 2 85 0
 330 002c B0EE677A 		vmov.f32	s14, s15
 331              		.loc 2 86 0
 332 0030 1CB2     		sxth	r4, r3
 333 0032 0121     		movs	r1, #1
 334              	.LVL23:
 335              	.L27:
 336 0034 0133     		adds	r3, r3, #1
 337              	.LVL24:
 338              		.loc 2 83 0 discriminator 2
 339 0036 9342     		cmp	r3, r2
 340 0038 F1D1     		bne	.L29
 341 003a 29B9     		cbnz	r1, .L38
 342              	.L26:
ARM GAS  C:\Users\chlok\AppData\Local\Temp\cc5mLMWN.s 			page 7


 343              	.LBE32:
 344              		.loc 2 115 0
 345 003c 019A     		ldr	r2, [sp, #4]
 346 003e 2B68     		ldr	r3, [r5]
 347 0040 9A42     		cmp	r2, r3
 348 0042 03D1     		bne	.L39
 349 0044 02B0     		add	sp, sp, #8
 350              		.cfi_remember_state
 351              		.cfi_def_cfa_offset 16
 352              		@ sp needed
 353 0046 70BD     		pop	{r4, r5, r6, pc}
 354              	.L38:
 355              		.cfi_restore_state
 356 0048 3480     		strh	r4, [r6]	@ movhi
 357 004a F7E7     		b	.L26
 358              	.L39:
 359 004c FFF7FEFF 		bl	__stack_chk_fail
 360              	.LVL25:
 361              	.L41:
 362              		.align	2
 363              	.L40:
 364 0050 00000000 		.word	__stack_chk_guard
 365 0054 00000000 		.word	.LANCHOR0
 366 0058 00401C46 		.word	1176256512
 367              		.cfi_endproc
 368              	.LFE292:
 369              		.size	sound_remote, .-sound_remote
 370              		.section	.text.processAudioData,"ax",%progbits
 371              		.align	1
 372              		.p2align 4,,15
 373              		.global	processAudioData
 374              		.syntax unified
 375              		.thumb
 376              		.thumb_func
 377              		.fpu fpv4-sp-d16
 378              		.type	processAudioData, %function
 379              	processAudioData:
 380              	.LFB293:
 381              		.loc 2 120 0
 382              		.cfi_startproc
 383              		@ args = 0, pretend = 0, frame = 8
 384              		@ frame_needed = 0, uses_anonymous_args = 0
 385              	.LVL26:
 386 0000 2DE9F041 		push	{r4, r5, r6, r7, r8, lr}
 387              		.cfi_def_cfa_offset 24
 388              		.cfi_offset 4, -24
 389              		.cfi_offset 5, -20
 390              		.cfi_offset 6, -16
 391              		.cfi_offset 7, -12
 392              		.cfi_offset 8, -8
 393              		.cfi_offset 14, -4
 394 0004 4E4E     		ldr	r6, .L58
 395 0006 4F4F     		ldr	r7, .L58+4
 396 0008 3568     		ldr	r5, [r6]
 397 000a DFF85CE1 		ldr	lr, .L58+40
 398 000e 3B68     		ldr	r3, [r7]
 399 0010 4D4C     		ldr	r4, .L58+8
ARM GAS  C:\Users\chlok\AppData\Local\Temp\cc5mLMWN.s 			page 8


 400 0012 4E49     		ldr	r1, .L58+12
 401              	.LVL27:
 402 0014 4E4A     		ldr	r2, .L58+16
 403 0016 82B0     		sub	sp, sp, #8
 404              		.cfi_def_cfa_offset 32
 405 0018 05F1010C 		add	ip, r5, #1
 406              		.loc 2 120 0
 407 001c 0193     		str	r3, [sp, #4]
 408              	.LVL28:
 409 001e EB00     		lsls	r3, r5, #3
 410 0020 1C44     		add	r4, r4, r3
 411 0022 1944     		add	r1, r1, r3
 412 0024 1A44     		add	r2, r2, r3
 413              	.LBB48:
 414              		.loc 2 137 0
 415 0026 0025     		movs	r5, #0
 416 0028 7344     		add	r3, r3, lr
 417 002a 00F5A06E 		add	lr, r0, #1280
 418 002e 0DE0     		b	.L44
 419              	.LVL29:
 420              	.L55:
 421 0030 0830     		adds	r0, r0, #8
 422              		.loc 2 130 0 discriminator 2
 423 0032 7045     		cmp	r0, lr
 424 0034 04F10804 		add	r4, r4, #8
 425 0038 01F10801 		add	r1, r1, #8
 426 003c 02F10802 		add	r2, r2, #8
 427 0040 03F10803 		add	r3, r3, #8
 428 0044 0CF10108 		add	r8, ip, #1
 429 0048 74D0     		beq	.L54
 430 004a C446     		mov	ip, r8
 431              	.LVL30:
 432              	.L44:
 433              		.loc 2 132 0
 434 004c B0F90080 		ldrsh	r8, [r0]
 435 0050 07EE908A 		vmov	s15, r8	@ int
 436 0054 F8EEE77A 		vcvt.f32.s32	s15, s15
 437              		.loc 2 143 0
 438 0058 BCF5806F 		cmp	ip, #1024
 439              		.loc 2 132 0
 440 005c C4ED007A 		vstr.32	s15, [r4]
 441              		.loc 2 133 0
 442 0060 B0F90280 		ldrsh	r8, [r0, #2]
 443 0064 07EE908A 		vmov	s15, r8	@ int
 444 0068 F8EEE77A 		vcvt.f32.s32	s15, s15
 445 006c C1ED007A 		vstr.32	s15, [r1]
 446              		.loc 2 134 0
 447 0070 B0F90480 		ldrsh	r8, [r0, #4]
 448 0074 07EE908A 		vmov	s15, r8	@ int
 449 0078 F8EEE77A 		vcvt.f32.s32	s15, s15
 450 007c C2ED007A 		vstr.32	s15, [r2]
 451              		.loc 2 135 0
 452 0080 B0F90680 		ldrsh	r8, [r0, #6]
 453              		.loc 2 137 0
 454 0084 6560     		str	r5, [r4, #4]	@ float
 455              		.loc 2 135 0
 456 0086 07EE908A 		vmov	s15, r8	@ int
ARM GAS  C:\Users\chlok\AppData\Local\Temp\cc5mLMWN.s 			page 9


 457 008a F8EEE77A 		vcvt.f32.s32	s15, s15
 458              		.loc 2 138 0
 459 008e 4D60     		str	r5, [r1, #4]	@ float
 460              		.loc 2 139 0
 461 0090 5560     		str	r5, [r2, #4]	@ float
 462              		.loc 2 140 0
 463 0092 5D60     		str	r5, [r3, #4]	@ float
 464              		.loc 2 135 0
 465 0094 C3ED007A 		vstr.32	s15, [r3]
 466              		.loc 2 143 0
 467 0098 CAD3     		bcc	.L55
 468              	.LBE48:
 469              		.loc 2 151 0
 470 009a 2C49     		ldr	r1, .L58+12
 471 009c C6F800C0 		str	ip, [r6]
 472              	.LVL31:
 473 00a0 4FF48060 		mov	r0, #1024
 474 00a4 FFF7FEFF 		bl	doFFT_optimized
 475              	.LVL32:
 476              		.loc 2 152 0
 477 00a8 4FF48062 		mov	r2, #1024
 478 00ac 2949     		ldr	r1, .L58+20
 479 00ae 2748     		ldr	r0, .L58+12
 480 00b0 FFF7FEFF 		bl	arm_cmplx_mag_f32
 481              	.LVL33:
 482              		.loc 2 154 0
 483 00b4 284A     		ldr	r2, .L58+24
 484 00b6 1368     		ldr	r3, [r2]
 485 00b8 0133     		adds	r3, r3, #1
 486              		.loc 2 153 0
 487 00ba 0021     		movs	r1, #0
 488              		.loc 2 156 0
 489 00bc 0A2B     		cmp	r3, #10
 490              		.loc 2 153 0
 491 00be 3160     		str	r1, [r6]
 492              		.loc 2 156 0
 493 00c0 07D0     		beq	.L49
 494              		.loc 2 154 0
 495 00c2 1360     		str	r3, [r2]
 496              	.L42:
 497              		.loc 2 230 0
 498 00c4 019A     		ldr	r2, [sp, #4]
 499 00c6 3B68     		ldr	r3, [r7]
 500 00c8 9A42     		cmp	r2, r3
 501 00ca 36D1     		bne	.L53
 502 00cc 02B0     		add	sp, sp, #8
 503              		.cfi_remember_state
 504              		.cfi_def_cfa_offset 24
 505              		@ sp needed
 506 00ce BDE8F081 		pop	{r4, r5, r6, r7, r8, pc}
 507              	.L49:
 508              		.cfi_restore_state
 509              		.loc 2 158 0
 510 00d2 1160     		str	r1, [r2]
 511              	.LVL34:
 512              	.LBB49:
 513              	.LBB50:
ARM GAS  C:\Users\chlok\AppData\Local\Temp\cc5mLMWN.s 			page 10


 514              	.LBB51:
 515              	.LBB52:
 516              	.LBB53:
 517              	.LBB54:
 518              	.LBB55:
 519              		.file 3 "../../lib/e-puck2_main-processor/ChibiOS//os/ext/CMSIS/include/core_cmFunc.h"
 520              		.loc 3 546 0
 521 00d4 2023     		movs	r3, #32
 522              		.syntax unified
 523              	@ 546 "../../lib/e-puck2_main-processor/ChibiOS//os/ext/CMSIS/include/core_cmFunc.h" 1
 524 00d6 83F31188 		MSR basepri, r3
 525              	@ 0 "" 2
 526              	.LVL35:
 527              		.thumb
 528              		.syntax unified
 529              	.LBE55:
 530              	.LBE54:
 531              	.LBE53:
 532              		.file 4 "../../lib/e-puck2_main-processor/ChibiOS//os/rt/include/chsys.h"
 533              		.loc 4 349 0
 534 00da FFF7FEFF 		bl	_stats_start_measure_crit_thd
 535              	.LVL36:
 536              		.loc 4 350 0
 537 00de FFF7FEFF 		bl	_dbg_check_lock
 538              	.LVL37:
 539              	.LBE52:
 540              	.LBE51:
 541              	.LBB56:
 542              	.LBB57:
 543              		.file 5 "../../lib/e-puck2_main-processor/ChibiOS//os/rt/include/chbsem.h"
 544              		.loc 5 268 0
 545 00e2 FFF7FEFF 		bl	chDbgCheckClassI
 546              	.LVL38:
 547              		.loc 5 270 0
 548 00e6 1D48     		ldr	r0, .L58+28
 549 00e8 8368     		ldr	r3, [r0, #8]
 550 00ea 002B     		cmp	r3, #0
 551 00ec 1FDD     		ble	.L56
 552              	.L46:
 553              	.LVL39:
 554              	.LBE57:
 555              	.LBE56:
 556              		.loc 5 286 0
 557 00ee FFF7FEFF 		bl	chSchRescheduleS
 558              	.LVL40:
 559              	.LBB59:
 560              	.LBB60:
 561              		.loc 4 360 0
 562 00f2 FFF7FEFF 		bl	_dbg_check_unlock
 563              	.LVL41:
 564              		.loc 4 361 0
 565 00f6 FFF7FEFF 		bl	_stats_stop_measure_crit_thd
 566              	.LVL42:
 567              		.loc 4 367 0
 568 00fa 194B     		ldr	r3, .L58+32
 569 00fc 1A68     		ldr	r2, [r3]
 570 00fe 9A42     		cmp	r2, r3
ARM GAS  C:\Users\chlok\AppData\Local\Temp\cc5mLMWN.s 			page 11


 571 0100 04D0     		beq	.L47
 572 0102 9969     		ldr	r1, [r3, #24]
 573 0104 9368     		ldr	r3, [r2, #8]
 574 0106 8A68     		ldr	r2, [r1, #8]
 575 0108 9A42     		cmp	r2, r3
 576 010a 0CD3     		bcc	.L57
 577              	.L47:
 578              	.LVL43:
 579              	.LBB61:
 580              	.LBB62:
 581              	.LBB63:
 582              		.loc 3 546 0
 583 010c 0023     		movs	r3, #0
 584              		.syntax unified
 585              	@ 546 "../../lib/e-puck2_main-processor/ChibiOS//os/ext/CMSIS/include/core_cmFunc.h" 1
 586 010e 83F31188 		MSR basepri, r3
 587              	@ 0 "" 2
 588              	.LVL44:
 589              		.thumb
 590              		.syntax unified
 591              	.LBE63:
 592              	.LBE62:
 593              	.LBE61:
 594              	.LBE60:
 595              	.LBE59:
 596              	.LBE50:
 597              	.LBE49:
 598              		.loc 2 160 0
 599 0112 019A     		ldr	r2, [sp, #4]
 600 0114 3B68     		ldr	r3, [r7]
 601 0116 9A42     		cmp	r2, r3
 602 0118 0FD1     		bne	.L53
 603 011a 0E48     		ldr	r0, .L58+20
 604              		.loc 2 230 0
 605 011c 02B0     		add	sp, sp, #8
 606              		.cfi_remember_state
 607              		.cfi_def_cfa_offset 24
 608              		@ sp needed
 609 011e BDE8F041 		pop	{r4, r5, r6, r7, r8, lr}
 610              		.cfi_restore 14
 611              		.cfi_restore 8
 612              		.cfi_restore 7
 613              		.cfi_restore 6
 614              		.cfi_restore 5
 615              		.cfi_restore 4
 616              		.cfi_def_cfa_offset 0
 617              		.loc 2 160 0
 618 0122 FFF7FEBF 		b	detectPeak
 619              	.LVL45:
 620              	.L57:
 621              		.cfi_restore_state
 622              	.LBB68:
 623              	.LBB67:
 624              	.LBB65:
 625              	.LBB64:
 626              		.loc 4 367 0
 627 0126 0F48     		ldr	r0, .L58+36
ARM GAS  C:\Users\chlok\AppData\Local\Temp\cc5mLMWN.s 			page 12


 628 0128 FFF7FEFF 		bl	chSysHalt
 629              	.LVL46:
 630 012c EEE7     		b	.L47
 631              	.LVL47:
 632              	.L56:
 633              	.LBE64:
 634              	.LBE65:
 635              	.LBB66:
 636              	.LBB58:
 637              		.loc 5 271 0
 638 012e FFF7FEFF 		bl	chSemSignalI
 639              	.LVL48:
 640 0132 DCE7     		b	.L46
 641              	.LVL49:
 642              	.L54:
 643 0134 C6F800C0 		str	ip, [r6]
 644              	.LVL50:
 645 0138 C4E7     		b	.L42
 646              	.L53:
 647              	.LBE58:
 648              	.LBE66:
 649              	.LBE67:
 650              	.LBE68:
 651              		.loc 2 230 0
 652 013a FFF7FEFF 		bl	__stack_chk_fail
 653              	.LVL51:
 654              	.L59:
 655 013e 00BF     		.align	2
 656              	.L58:
 657 0140 00000000 		.word	.LANCHOR1
 658 0144 00000000 		.word	__stack_chk_guard
 659 0148 00000000 		.word	micRight_cmplx_input
 660 014c 00000000 		.word	micLeft_cmplx_input
 661 0150 00000000 		.word	micBack_cmplx_input
 662 0154 00000000 		.word	micLeft_output
 663 0158 00000000 		.word	.LANCHOR2
 664 015c 00000000 		.word	.LANCHOR3
 665 0160 00000000 		.word	ch
 666 0164 00000000 		.word	.LANCHOR4
 667 0168 00000000 		.word	micFront_cmplx_input
 668              		.cfi_endproc
 669              	.LFE293:
 670              		.size	processAudioData, .-processAudioData
 671              		.section	.text.wait_send_to_computer,"ax",%progbits
 672              		.align	1
 673              		.p2align 4,,15
 674              		.global	wait_send_to_computer
 675              		.syntax unified
 676              		.thumb
 677              		.thumb_func
 678              		.fpu fpv4-sp-d16
 679              		.type	wait_send_to_computer, %function
 680              	wait_send_to_computer:
 681              	.LFB294:
 682              		.loc 2 233 0
 683              		.cfi_startproc
 684              		@ args = 0, pretend = 0, frame = 8
ARM GAS  C:\Users\chlok\AppData\Local\Temp\cc5mLMWN.s 			page 13


 685              		@ frame_needed = 0, uses_anonymous_args = 0
 686 0000 00B5     		push	{lr}
 687              		.cfi_def_cfa_offset 4
 688              		.cfi_offset 14, -4
 689 0002 084B     		ldr	r3, .L65
 690 0004 83B0     		sub	sp, sp, #12
 691              		.cfi_def_cfa_offset 16
 692              		.loc 2 233 0
 693 0006 1A68     		ldr	r2, [r3]
 694 0008 0192     		str	r2, [sp, #4]
 695              	.LVL52:
 696              	.LBB69:
 697              	.LBB70:
 698              		.loc 5 143 0
 699 000a 019A     		ldr	r2, [sp, #4]
 700 000c 1B68     		ldr	r3, [r3]
 701 000e 9A42     		cmp	r2, r3
 702 0010 05D1     		bne	.L64
 703 0012 0548     		ldr	r0, .L65+4
 704              	.LBE70:
 705              	.LBE69:
 706              		.loc 2 235 0
 707 0014 03B0     		add	sp, sp, #12
 708              		.cfi_remember_state
 709              		.cfi_def_cfa_offset 4
 710              		@ sp needed
 711 0016 5DF804EB 		ldr	lr, [sp], #4
 712              		.cfi_restore 14
 713              		.cfi_def_cfa_offset 0
 714              	.LBB72:
 715              	.LBB71:
 716              		.loc 5 143 0
 717 001a FFF7FEBF 		b	chSemWait
 718              	.LVL53:
 719              	.L64:
 720              		.cfi_restore_state
 721 001e FFF7FEFF 		bl	__stack_chk_fail
 722              	.LVL54:
 723              	.L66:
 724 0022 00BF     		.align	2
 725              	.L65:
 726 0024 00000000 		.word	__stack_chk_guard
 727 0028 00000000 		.word	.LANCHOR3
 728              	.LBE71:
 729              	.LBE72:
 730              		.cfi_endproc
 731              	.LFE294:
 732              		.size	wait_send_to_computer, .-wait_send_to_computer
 733              		.section	.text.get_audio_buffer_ptr,"ax",%progbits
 734              		.align	1
 735              		.p2align 4,,15
 736              		.global	get_audio_buffer_ptr
 737              		.syntax unified
 738              		.thumb
 739              		.thumb_func
 740              		.fpu fpv4-sp-d16
 741              		.type	get_audio_buffer_ptr, %function
ARM GAS  C:\Users\chlok\AppData\Local\Temp\cc5mLMWN.s 			page 14


 742              	get_audio_buffer_ptr:
 743              	.LFB295:
 744              		.loc 2 237 0
 745              		.cfi_startproc
 746              		@ args = 0, pretend = 0, frame = 8
 747              		@ frame_needed = 0, uses_anonymous_args = 0
 748              	.LVL55:
 749 0000 00B5     		push	{lr}
 750              		.cfi_def_cfa_offset 4
 751              		.cfi_offset 14, -4
 752 0002 164B     		ldr	r3, .L80
 753 0004 83B0     		sub	sp, sp, #12
 754              		.cfi_def_cfa_offset 16
 755              		.loc 2 237 0
 756 0006 1A68     		ldr	r2, [r3]
 757 0008 0192     		str	r2, [sp, #4]
 758              		.loc 2 238 0
 759 000a 88B1     		cbz	r0, .L70
 760              		.loc 2 241 0
 761 000c 0128     		cmp	r0, #1
 762 000e 17D0     		beq	.L71
 763              		.loc 2 244 0
 764 0010 0228     		cmp	r0, #2
 765 0012 19D0     		beq	.L72
 766              		.loc 2 247 0
 767 0014 0328     		cmp	r0, #3
 768 0016 15D0     		beq	.L73
 769              		.loc 2 250 0
 770 0018 0428     		cmp	r0, #4
 771 001a 17D0     		beq	.L74
 772              		.loc 2 253 0
 773 001c 0528     		cmp	r0, #5
 774 001e 17D0     		beq	.L75
 775              		.loc 2 256 0
 776 0020 0628     		cmp	r0, #6
 777 0022 17D0     		beq	.L76
 778              		.loc 2 263 0
 779 0024 0E4A     		ldr	r2, .L80+4
 780              		.loc 2 259 0
 781 0026 0728     		cmp	r0, #7
 782              		.loc 2 263 0
 783 0028 0CBF     		ite	eq
 784 002a 1046     		moveq	r0, r2
 785              	.LVL56:
 786 002c 0020     		movne	r0, #0
 787 002e 00E0     		b	.L67
 788              	.LVL57:
 789              	.L70:
 790              		.loc 2 239 0
 791 0030 0C48     		ldr	r0, .L80+8
 792              	.LVL58:
 793              	.L67:
 794              		.loc 2 265 0
 795 0032 019A     		ldr	r2, [sp, #4]
 796 0034 1B68     		ldr	r3, [r3]
 797 0036 9A42     		cmp	r2, r3
 798 0038 0ED1     		bne	.L79
ARM GAS  C:\Users\chlok\AppData\Local\Temp\cc5mLMWN.s 			page 15


 799 003a 03B0     		add	sp, sp, #12
 800              		.cfi_remember_state
 801              		.cfi_def_cfa_offset 4
 802              		@ sp needed
 803 003c 5DF804FB 		ldr	pc, [sp], #4
 804              	.LVL59:
 805              	.L71:
 806              		.cfi_restore_state
 807              		.loc 2 242 0
 808 0040 0948     		ldr	r0, .L80+12
 809              	.LVL60:
 810 0042 F6E7     		b	.L67
 811              	.LVL61:
 812              	.L73:
 813              		.loc 2 248 0
 814 0044 0948     		ldr	r0, .L80+16
 815              	.LVL62:
 816 0046 F4E7     		b	.L67
 817              	.LVL63:
 818              	.L72:
 819              		.loc 2 245 0
 820 0048 0948     		ldr	r0, .L80+20
 821              	.LVL64:
 822 004a F2E7     		b	.L67
 823              	.LVL65:
 824              	.L74:
 825              		.loc 2 251 0
 826 004c 0948     		ldr	r0, .L80+24
 827              	.LVL66:
 828 004e F0E7     		b	.L67
 829              	.LVL67:
 830              	.L75:
 831              		.loc 2 254 0
 832 0050 0948     		ldr	r0, .L80+28
 833              	.LVL68:
 834 0052 EEE7     		b	.L67
 835              	.LVL69:
 836              	.L76:
 837              		.loc 2 257 0
 838 0054 0948     		ldr	r0, .L80+32
 839              	.LVL70:
 840 0056 ECE7     		b	.L67
 841              	.L79:
 842              		.loc 2 265 0
 843 0058 FFF7FEFF 		bl	__stack_chk_fail
 844              	.LVL71:
 845              	.L81:
 846              		.align	2
 847              	.L80:
 848 005c 00000000 		.word	__stack_chk_guard
 849 0060 00000000 		.word	micBack_output
 850 0064 00000000 		.word	micLeft_cmplx_input
 851 0068 00000000 		.word	micRight_cmplx_input
 852 006c 00000000 		.word	micBack_cmplx_input
 853 0070 00000000 		.word	micFront_cmplx_input
 854 0074 00000000 		.word	micLeft_output
 855 0078 00000000 		.word	micRight_output
ARM GAS  C:\Users\chlok\AppData\Local\Temp\cc5mLMWN.s 			page 16


 856 007c 00000000 		.word	micFront_output
 857              		.cfi_endproc
 858              	.LFE295:
 859              		.size	get_audio_buffer_ptr, .-get_audio_buffer_ptr
 860              		.section	.bss.micBack_cmplx_input,"aw",%nobits
 861              		.align	2
 862              		.type	micBack_cmplx_input, %object
 863              		.size	micBack_cmplx_input, 8192
 864              	micBack_cmplx_input:
 865 0000 00000000 		.space	8192
 865      00000000 
 865      00000000 
 865      00000000 
 865      00000000 
 866              		.section	.bss.micBack_output,"aw",%nobits
 867              		.align	2
 868              		.type	micBack_output, %object
 869              		.size	micBack_output, 4096
 870              	micBack_output:
 871 0000 00000000 		.space	4096
 871      00000000 
 871      00000000 
 871      00000000 
 871      00000000 
 872              		.section	.bss.micFront_cmplx_input,"aw",%nobits
 873              		.align	2
 874              		.type	micFront_cmplx_input, %object
 875              		.size	micFront_cmplx_input, 8192
 876              	micFront_cmplx_input:
 877 0000 00000000 		.space	8192
 877      00000000 
 877      00000000 
 877      00000000 
 877      00000000 
 878              		.section	.bss.micFront_output,"aw",%nobits
 879              		.align	2
 880              		.type	micFront_output, %object
 881              		.size	micFront_output, 4096
 882              	micFront_output:
 883 0000 00000000 		.space	4096
 883      00000000 
 883      00000000 
 883      00000000 
 883      00000000 
 884              		.section	.bss.micLeft_cmplx_input,"aw",%nobits
 885              		.align	2
 886              		.type	micLeft_cmplx_input, %object
 887              		.size	micLeft_cmplx_input, 8192
 888              	micLeft_cmplx_input:
 889 0000 00000000 		.space	8192
 889      00000000 
 889      00000000 
 889      00000000 
 889      00000000 
 890              		.section	.bss.micLeft_output,"aw",%nobits
 891              		.align	2
 892              		.type	micLeft_output, %object
ARM GAS  C:\Users\chlok\AppData\Local\Temp\cc5mLMWN.s 			page 17


 893              		.size	micLeft_output, 4096
 894              	micLeft_output:
 895 0000 00000000 		.space	4096
 895      00000000 
 895      00000000 
 895      00000000 
 895      00000000 
 896              		.section	.bss.micRight_cmplx_input,"aw",%nobits
 897              		.align	2
 898              		.type	micRight_cmplx_input, %object
 899              		.size	micRight_cmplx_input, 8192
 900              	micRight_cmplx_input:
 901 0000 00000000 		.space	8192
 901      00000000 
 901      00000000 
 901      00000000 
 901      00000000 
 902              		.section	.bss.micRight_output,"aw",%nobits
 903              		.align	2
 904              		.type	micRight_output, %object
 905              		.size	micRight_output, 4096
 906              	micRight_output:
 907 0000 00000000 		.space	4096
 907      00000000 
 907      00000000 
 907      00000000 
 907      00000000 
 908              		.section	.bss.size,"aw",%nobits
 909              		.align	2
 910              		.set	.LANCHOR1,. + 0
 911              		.type	size, %object
 912              		.size	size, 4
 913              	size:
 914 0000 00000000 		.space	4
 915              		.section	.bss.temp,"aw",%nobits
 916              		.align	2
 917              		.set	.LANCHOR2,. + 0
 918              		.type	temp, %object
 919              		.size	temp, 4
 920              	temp:
 921 0000 00000000 		.space	4
 922              		.section	.data.max_norm_index,"aw",%progbits
 923              		.align	1
 924              		.set	.LANCHOR0,. + 0
 925              		.type	max_norm_index, %object
 926              		.size	max_norm_index, 2
 927              	max_norm_index:
 928 0000 FFFF     		.short	-1
 929              		.section	.data.sendToComputer_sem,"aw",%progbits
 930              		.align	2
 931              		.set	.LANCHOR3,. + 0
 932              		.type	sendToComputer_sem, %object
 933              		.size	sendToComputer_sem, 12
 934              	sendToComputer_sem:
 935 0000 00000000 		.word	sendToComputer_sem
 936 0004 00000000 		.word	sendToComputer_sem
 937 0008 00000000 		.word	0
ARM GAS  C:\Users\chlok\AppData\Local\Temp\cc5mLMWN.s 			page 18


 938              		.section	.rodata.__func__.7153,"a",%progbits
 939              		.align	2
 940              		.set	.LANCHOR4,. + 0
 941              		.type	__func__.7153, %object
 942              		.size	__func__.7153, 12
 943              	__func__.7153:
 944 0000 63685379 		.ascii	"chSysUnlock\000"
 944      73556E6C 
 944      6F636B00 
 945              		.section	.rodata.chprintf.constprop.0.str1.4,"aMS",%progbits,1
 946              		.align	2
 947              	.LC0:
 948 0000 504F5320 		.ascii	"POS = %f, amplitude = %f\012\000"
 948      3D202566 
 948      2C20616D 
 948      706C6974 
 948      75646520 
 949              		.text
 950              	.Letext0:
 951              		.file 6 "c:\\users\\chlok\\downloads\\eclipse_e-puck2\\tools\\gcc-arm-none-eabi-7-2017-q4-major-wi
 952              		.file 7 "c:\\users\\chlok\\downloads\\eclipse_e-puck2\\tools\\gcc-arm-none-eabi-7-2017-q4-major-wi
 953              		.file 8 "c:\\users\\chlok\\downloads\\eclipse_e-puck2\\tools\\gcc-arm-none-eabi-7-2017-q4-major-wi
 954              		.file 9 "../../lib/e-puck2_main-processor/ChibiOS//os/rt/ports/ARMCMx/compilers/GCC/chtypes.h"
 955              		.file 10 "../../lib/e-puck2_main-processor/ChibiOS//os/rt/include/chsystypes.h"
 956              		.file 11 "../../lib/e-puck2_main-processor/ChibiOS//os/rt/include/chschd.h"
 957              		.file 12 "../../lib/e-puck2_main-processor/ChibiOS//os/ext/CMSIS/include/core_cm4.h"
 958              		.file 13 "../../lib/e-puck2_main-processor/ChibiOS//os/ext/CMSIS/ST/system_stm32f4xx.h"
 959              		.file 14 "../../lib/e-puck2_main-processor/ChibiOS//os/ext/CMSIS/ST/stm32f407xx.h"
 960              		.file 15 "../../lib/e-puck2_main-processor/ChibiOS//os/rt/ports/ARMCMx/chcore.h"
 961              		.file 16 "../../lib/e-puck2_main-processor/ChibiOS//os/rt/ports/ARMCMx/chcore_v7m.h"
 962              		.file 17 "../../lib/e-puck2_main-processor/ChibiOS//os/rt/include/chdebug.h"
 963              		.file 18 "../../lib/e-puck2_main-processor/ChibiOS//os/rt/include/chtm.h"
 964              		.file 19 "../../lib/e-puck2_main-processor/ChibiOS//os/rt/include/chstats.h"
 965              		.file 20 "../../lib/e-puck2_main-processor/ChibiOS//os/rt/include/chsem.h"
 966              		.file 21 "../../lib/e-puck2_main-processor/ChibiOS//os/rt/include/chmtx.h"
 967              		.file 22 "../../lib/e-puck2_main-processor/ChibiOS//os/rt/include/chregistry.h"
 968              		.file 23 "../../lib/e-puck2_main-processor/ChibiOS//os/rt/include/chevents.h"
 969              		.file 24 "../../lib/e-puck2_main-processor/ChibiOS//os/rt/include/chqueues.h"
 970              		.file 25 "../../lib/e-puck2_main-processor/ChibiOS//os/rt/include/chstreams.h"
 971              		.file 26 "../../lib/e-puck2_main-processor/ChibiOS//os/hal/ports/STM32/STM32F4xx/stm32_dma.h"
 972              		.file 27 "../../lib/e-puck2_main-processor/ChibiOS//os/hal/include/hal_ioblock.h"
 973              		.file 28 "../../lib/e-puck2_main-processor/ChibiOS//os/hal/ports/STM32/LLD/GPIOv2/pal_lld.h"
 974              		.file 29 "../../lib/e-puck2_main-processor/ChibiOS//os/hal/include/adc.h"
 975              		.file 30 "../../lib/e-puck2_main-processor/ChibiOS//os/hal/ports/STM32/STM32F4xx/adc_lld.h"
 976              		.file 31 "../../lib/e-puck2_main-processor/ChibiOS//os/hal/include/can.h"
 977              		.file 32 "../../lib/e-puck2_main-processor/ChibiOS//os/hal/ports/STM32/LLD/can_lld.h"
 978              		.file 33 "../../lib/e-puck2_main-processor/ChibiOS//os/hal/include/dac.h"
 979              		.file 34 "../../lib/e-puck2_main-processor/ChibiOS//os/hal/ports/STM32/LLD/DACv1/dac_lld.h"
 980              		.file 35 "../../lib/e-puck2_main-processor/ChibiOS//os/hal/include/ext.h"
 981              		.file 36 "../../lib/e-puck2_main-processor/ChibiOS//os/hal/ports/STM32/LLD/ext_lld.h"
 982              		.file 37 "../../lib/e-puck2_main-processor/ChibiOS//os/hal/include/gpt.h"
 983              		.file 38 "../../lib/e-puck2_main-processor/ChibiOS//os/hal/ports/STM32/LLD/TIMv1/gpt_lld.h"
 984              		.file 39 "../../lib/e-puck2_main-processor/ChibiOS//os/hal/ports/STM32/LLD/TIMv1/stm32_tim.h"
 985              		.file 40 "../../lib/e-puck2_main-processor/ChibiOS//os/hal/include/i2c.h"
 986              		.file 41 "../../lib/e-puck2_main-processor/ChibiOS//os/hal/ports/STM32/LLD/I2Cv1/i2c_lld.h"
 987              		.file 42 "../../lib/e-puck2_main-processor/ChibiOS//os/hal/include/i2s.h"
 988              		.file 43 "../../lib/e-puck2_main-processor/ChibiOS//os/hal/ports/STM32/LLD/SPIv1/i2s_lld.h"
ARM GAS  C:\Users\chlok\AppData\Local\Temp\cc5mLMWN.s 			page 19


 989              		.file 44 "../../lib/e-puck2_main-processor/ChibiOS//os/hal/include/pwm.h"
 990              		.file 45 "../../lib/e-puck2_main-processor/ChibiOS//os/hal/ports/STM32/LLD/TIMv1/pwm_lld.h"
 991              		.file 46 "../../lib/e-puck2_main-processor/ChibiOS//os/hal/include/serial.h"
 992              		.file 47 "../../lib/e-puck2_main-processor/ChibiOS//os/hal/ports/STM32/LLD/USARTv1/serial_lld.h"
 993              		.file 48 "../../lib/e-puck2_main-processor/ChibiOS//os/hal/include/sdc.h"
 994              		.file 49 "../../lib/e-puck2_main-processor/ChibiOS//os/hal/ports/STM32/LLD/sdc_lld.h"
 995              		.file 50 "../../lib/e-puck2_main-processor/ChibiOS//os/hal/include/spi.h"
 996              		.file 51 "../../lib/e-puck2_main-processor/ChibiOS//os/hal/ports/STM32/LLD/SPIv1/spi_lld.h"
 997              		.file 52 "../../lib/e-puck2_main-processor/ChibiOS//os/hal/include/usb.h"
 998              		.file 53 "../../lib/e-puck2_main-processor/ChibiOS//os/hal/ports/STM32/LLD/OTGv1/usb_lld.h"
 999              		.file 54 "../../lib/e-puck2_main-processor/ChibiOS//os/hal/ports/STM32/LLD/OTGv1/stm32_otg.h"
 1000              		.file 55 "../../lib/e-puck2_main-processor/ChibiOS//os/hal/include/serial_usb.h"
 1001              		.file 56 "../../lib/e-puck2_main-processor/ChibiOS_ext/os/hal/include/../ports/STM32/STM32F4xx/dcm
 1002              		.file 57 "c:\\users\\chlok\\downloads\\eclipse_e-puck2\\tools\\gcc-arm-none-eabi-7-2017-q4-major-w
 1003              		.file 58 "c:\\users\\chlok\\downloads\\eclipse_e-puck2\\tools\\gcc-arm-none-eabi-7-2017-q4-major-w
 1004              		.file 59 "<built-in>"
 1005              		.file 60 "c:\\users\\chlok\\downloads\\eclipse_e-puck2\\tools\\gcc-arm-none-eabi-7-2017-q4-major-w
 1006              		.file 61 "../../lib/e-puck2_main-processor/src/msgbus/messagebus.h"
 1007              		.file 62 "c:\\users\\chlok\\downloads\\eclipse_e-puck2\\tools\\gcc-arm-none-eabi-7-2017-q4-major-w
 1008              		.file 63 "c:\\users\\chlok\\downloads\\eclipse_e-puck2\\tools\\gcc-arm-none-eabi-7-2017-q4-major-w
 1009              		.file 64 "../../lib/e-puck2_main-processor/src/parameter/parameter.h"
 1010              		.file 65 "./main.h"
 1011              		.file 66 "../../lib/e-puck2_main-processor/src/usbcfg.h"
 1012              		.file 67 "c:\\users\\chlok\\downloads\\eclipse_e-puck2\\tools\\gcc-arm-none-eabi-7-2017-q4-major-w
 1013              		.file 68 "./audio_processing.h"
 1014              		.file 69 "c:\\users\\chlok\\downloads\\eclipse_e-puck2\\tools\\gcc-arm-none-eabi-7-2017-q4-major-w
 1015              		.file 70 "./fft.h"
 1016              		.file 71 "../../lib/e-puck2_main-processor/ChibiOS//os/ext/CMSIS/include/arm_math.h"